ARM GAS  /tmp/cc5sw4Du.s 			page 1


   1              		.cpu cortex-m4
   2              		.eabi_attribute 27, 1
   3              		.eabi_attribute 28, 1
   4              		.eabi_attribute 20, 1
   5              		.eabi_attribute 21, 1
   6              		.eabi_attribute 23, 3
   7              		.eabi_attribute 24, 1
   8              		.eabi_attribute 25, 1
   9              		.eabi_attribute 26, 1
  10              		.eabi_attribute 30, 1
  11              		.eabi_attribute 34, 1
  12              		.eabi_attribute 18, 4
  13              		.file	"stm32l4xx_hal_flash_ex.c"
  14              		.text
  15              	.Ltext0:
  16              		.cfi_sections	.debug_frame
  17              		.section	.text.FLASH_MassErase,"ax",%progbits
  18              		.align	1
  19              		.arch armv7e-m
  20              		.syntax unified
  21              		.thumb
  22              		.thumb_func
  23              		.fpu fpv4-sp-d16
  25              	FLASH_MassErase:
  26              	.LVL0:
  27              	.LFB321:
  28              		.file 1 "Drivers/STM32L4xx_HAL_Driver/Src/stm32l4xx_hal_flash_ex.c"
   1:Drivers/STM32L4xx_HAL_Driver/Src/stm32l4xx_hal_flash_ex.c **** /**
   2:Drivers/STM32L4xx_HAL_Driver/Src/stm32l4xx_hal_flash_ex.c ****   ******************************************************************************
   3:Drivers/STM32L4xx_HAL_Driver/Src/stm32l4xx_hal_flash_ex.c ****   * @file    stm32l4xx_hal_flash_ex.c
   4:Drivers/STM32L4xx_HAL_Driver/Src/stm32l4xx_hal_flash_ex.c ****   * @author  MCD Application Team
   5:Drivers/STM32L4xx_HAL_Driver/Src/stm32l4xx_hal_flash_ex.c ****   * @brief   Extended FLASH HAL module driver.
   6:Drivers/STM32L4xx_HAL_Driver/Src/stm32l4xx_hal_flash_ex.c ****   *          This file provides firmware functions to manage the following
   7:Drivers/STM32L4xx_HAL_Driver/Src/stm32l4xx_hal_flash_ex.c ****   *          functionalities of the FLASH extended peripheral:
   8:Drivers/STM32L4xx_HAL_Driver/Src/stm32l4xx_hal_flash_ex.c ****   *           + Extended programming operations functions
   9:Drivers/STM32L4xx_HAL_Driver/Src/stm32l4xx_hal_flash_ex.c ****   *
  10:Drivers/STM32L4xx_HAL_Driver/Src/stm32l4xx_hal_flash_ex.c ****  @verbatim
  11:Drivers/STM32L4xx_HAL_Driver/Src/stm32l4xx_hal_flash_ex.c ****  ==============================================================================
  12:Drivers/STM32L4xx_HAL_Driver/Src/stm32l4xx_hal_flash_ex.c ****                    ##### Flash Extended features #####
  13:Drivers/STM32L4xx_HAL_Driver/Src/stm32l4xx_hal_flash_ex.c ****   ==============================================================================
  14:Drivers/STM32L4xx_HAL_Driver/Src/stm32l4xx_hal_flash_ex.c **** 
  15:Drivers/STM32L4xx_HAL_Driver/Src/stm32l4xx_hal_flash_ex.c ****   [..] Comparing to other previous devices, the FLASH interface for STM32L4xx
  16:Drivers/STM32L4xx_HAL_Driver/Src/stm32l4xx_hal_flash_ex.c ****        devices contains the following additional features
  17:Drivers/STM32L4xx_HAL_Driver/Src/stm32l4xx_hal_flash_ex.c **** 
  18:Drivers/STM32L4xx_HAL_Driver/Src/stm32l4xx_hal_flash_ex.c ****        (+) Capacity up to 2 Mbyte with dual bank architecture supporting read-while-write
  19:Drivers/STM32L4xx_HAL_Driver/Src/stm32l4xx_hal_flash_ex.c ****            capability (RWW)
  20:Drivers/STM32L4xx_HAL_Driver/Src/stm32l4xx_hal_flash_ex.c ****        (+) Dual bank memory organization
  21:Drivers/STM32L4xx_HAL_Driver/Src/stm32l4xx_hal_flash_ex.c ****        (+) PCROP protection for all banks
  22:Drivers/STM32L4xx_HAL_Driver/Src/stm32l4xx_hal_flash_ex.c **** 
  23:Drivers/STM32L4xx_HAL_Driver/Src/stm32l4xx_hal_flash_ex.c ****                         ##### How to use this driver #####
  24:Drivers/STM32L4xx_HAL_Driver/Src/stm32l4xx_hal_flash_ex.c ****  ==============================================================================
  25:Drivers/STM32L4xx_HAL_Driver/Src/stm32l4xx_hal_flash_ex.c ****   [..] This driver provides functions to configure and program the FLASH memory
  26:Drivers/STM32L4xx_HAL_Driver/Src/stm32l4xx_hal_flash_ex.c ****        of all STM32L4xx devices. It includes
  27:Drivers/STM32L4xx_HAL_Driver/Src/stm32l4xx_hal_flash_ex.c ****       (#) Flash Memory Erase functions:
  28:Drivers/STM32L4xx_HAL_Driver/Src/stm32l4xx_hal_flash_ex.c ****            (++) Lock and Unlock the FLASH interface using HAL_FLASH_Unlock() and
  29:Drivers/STM32L4xx_HAL_Driver/Src/stm32l4xx_hal_flash_ex.c ****                 HAL_FLASH_Lock() functions
  30:Drivers/STM32L4xx_HAL_Driver/Src/stm32l4xx_hal_flash_ex.c ****            (++) Erase function: Erase page, erase all sectors
ARM GAS  /tmp/cc5sw4Du.s 			page 2


  31:Drivers/STM32L4xx_HAL_Driver/Src/stm32l4xx_hal_flash_ex.c ****            (++) There are two modes of erase :
  32:Drivers/STM32L4xx_HAL_Driver/Src/stm32l4xx_hal_flash_ex.c ****              (+++) Polling Mode using HAL_FLASHEx_Erase()
  33:Drivers/STM32L4xx_HAL_Driver/Src/stm32l4xx_hal_flash_ex.c ****              (+++) Interrupt Mode using HAL_FLASHEx_Erase_IT()
  34:Drivers/STM32L4xx_HAL_Driver/Src/stm32l4xx_hal_flash_ex.c **** 
  35:Drivers/STM32L4xx_HAL_Driver/Src/stm32l4xx_hal_flash_ex.c ****       (#) Option Bytes Programming function: Use HAL_FLASHEx_OBProgram() to :
  36:Drivers/STM32L4xx_HAL_Driver/Src/stm32l4xx_hal_flash_ex.c ****         (++) Set/Reset the write protection
  37:Drivers/STM32L4xx_HAL_Driver/Src/stm32l4xx_hal_flash_ex.c ****         (++) Set the Read protection Level
  38:Drivers/STM32L4xx_HAL_Driver/Src/stm32l4xx_hal_flash_ex.c ****         (++) Program the user Option Bytes
  39:Drivers/STM32L4xx_HAL_Driver/Src/stm32l4xx_hal_flash_ex.c ****         (++) Configure the PCROP protection
  40:Drivers/STM32L4xx_HAL_Driver/Src/stm32l4xx_hal_flash_ex.c **** 
  41:Drivers/STM32L4xx_HAL_Driver/Src/stm32l4xx_hal_flash_ex.c ****       (#) Get Option Bytes Configuration function: Use HAL_FLASHEx_OBGetConfig() to :
  42:Drivers/STM32L4xx_HAL_Driver/Src/stm32l4xx_hal_flash_ex.c ****         (++) Get the value of a write protection area
  43:Drivers/STM32L4xx_HAL_Driver/Src/stm32l4xx_hal_flash_ex.c ****         (++) Know if the read protection is activated
  44:Drivers/STM32L4xx_HAL_Driver/Src/stm32l4xx_hal_flash_ex.c ****         (++) Get the value of the user Option Bytes
  45:Drivers/STM32L4xx_HAL_Driver/Src/stm32l4xx_hal_flash_ex.c ****         (++) Get the value of a PCROP area
  46:Drivers/STM32L4xx_HAL_Driver/Src/stm32l4xx_hal_flash_ex.c **** 
  47:Drivers/STM32L4xx_HAL_Driver/Src/stm32l4xx_hal_flash_ex.c ****  @endverbatim
  48:Drivers/STM32L4xx_HAL_Driver/Src/stm32l4xx_hal_flash_ex.c ****   ******************************************************************************
  49:Drivers/STM32L4xx_HAL_Driver/Src/stm32l4xx_hal_flash_ex.c ****   * @attention
  50:Drivers/STM32L4xx_HAL_Driver/Src/stm32l4xx_hal_flash_ex.c ****   *
  51:Drivers/STM32L4xx_HAL_Driver/Src/stm32l4xx_hal_flash_ex.c ****   * Copyright (c) 2017 STMicroelectronics.
  52:Drivers/STM32L4xx_HAL_Driver/Src/stm32l4xx_hal_flash_ex.c ****   * All rights reserved.
  53:Drivers/STM32L4xx_HAL_Driver/Src/stm32l4xx_hal_flash_ex.c ****   *
  54:Drivers/STM32L4xx_HAL_Driver/Src/stm32l4xx_hal_flash_ex.c ****   * This software is licensed under terms that can be found in the LICENSE file in
  55:Drivers/STM32L4xx_HAL_Driver/Src/stm32l4xx_hal_flash_ex.c ****   * the root directory of this software component.
  56:Drivers/STM32L4xx_HAL_Driver/Src/stm32l4xx_hal_flash_ex.c ****   * If no LICENSE file comes with this software, it is provided AS-IS.
  57:Drivers/STM32L4xx_HAL_Driver/Src/stm32l4xx_hal_flash_ex.c ****   ******************************************************************************
  58:Drivers/STM32L4xx_HAL_Driver/Src/stm32l4xx_hal_flash_ex.c ****   */
  59:Drivers/STM32L4xx_HAL_Driver/Src/stm32l4xx_hal_flash_ex.c **** 
  60:Drivers/STM32L4xx_HAL_Driver/Src/stm32l4xx_hal_flash_ex.c **** /* Includes ------------------------------------------------------------------*/
  61:Drivers/STM32L4xx_HAL_Driver/Src/stm32l4xx_hal_flash_ex.c **** #include "stm32l4xx_hal.h"
  62:Drivers/STM32L4xx_HAL_Driver/Src/stm32l4xx_hal_flash_ex.c **** 
  63:Drivers/STM32L4xx_HAL_Driver/Src/stm32l4xx_hal_flash_ex.c **** /** @addtogroup STM32L4xx_HAL_Driver
  64:Drivers/STM32L4xx_HAL_Driver/Src/stm32l4xx_hal_flash_ex.c ****   * @{
  65:Drivers/STM32L4xx_HAL_Driver/Src/stm32l4xx_hal_flash_ex.c ****   */
  66:Drivers/STM32L4xx_HAL_Driver/Src/stm32l4xx_hal_flash_ex.c **** 
  67:Drivers/STM32L4xx_HAL_Driver/Src/stm32l4xx_hal_flash_ex.c **** /** @defgroup FLASHEx FLASHEx
  68:Drivers/STM32L4xx_HAL_Driver/Src/stm32l4xx_hal_flash_ex.c ****   * @brief FLASH Extended HAL module driver
  69:Drivers/STM32L4xx_HAL_Driver/Src/stm32l4xx_hal_flash_ex.c ****   * @{
  70:Drivers/STM32L4xx_HAL_Driver/Src/stm32l4xx_hal_flash_ex.c ****   */
  71:Drivers/STM32L4xx_HAL_Driver/Src/stm32l4xx_hal_flash_ex.c **** 
  72:Drivers/STM32L4xx_HAL_Driver/Src/stm32l4xx_hal_flash_ex.c **** #ifdef HAL_FLASH_MODULE_ENABLED
  73:Drivers/STM32L4xx_HAL_Driver/Src/stm32l4xx_hal_flash_ex.c **** 
  74:Drivers/STM32L4xx_HAL_Driver/Src/stm32l4xx_hal_flash_ex.c **** /* Private typedef -----------------------------------------------------------*/
  75:Drivers/STM32L4xx_HAL_Driver/Src/stm32l4xx_hal_flash_ex.c **** /* Private define ------------------------------------------------------------*/
  76:Drivers/STM32L4xx_HAL_Driver/Src/stm32l4xx_hal_flash_ex.c **** /* Private macro -------------------------------------------------------------*/
  77:Drivers/STM32L4xx_HAL_Driver/Src/stm32l4xx_hal_flash_ex.c **** /* Private variables ---------------------------------------------------------*/
  78:Drivers/STM32L4xx_HAL_Driver/Src/stm32l4xx_hal_flash_ex.c **** /* Private function prototypes -----------------------------------------------*/
  79:Drivers/STM32L4xx_HAL_Driver/Src/stm32l4xx_hal_flash_ex.c **** /** @defgroup FLASHEx_Private_Functions FLASHEx Private Functions
  80:Drivers/STM32L4xx_HAL_Driver/Src/stm32l4xx_hal_flash_ex.c ****  * @{
  81:Drivers/STM32L4xx_HAL_Driver/Src/stm32l4xx_hal_flash_ex.c ****  */
  82:Drivers/STM32L4xx_HAL_Driver/Src/stm32l4xx_hal_flash_ex.c **** static void              FLASH_MassErase(uint32_t Banks);
  83:Drivers/STM32L4xx_HAL_Driver/Src/stm32l4xx_hal_flash_ex.c **** static HAL_StatusTypeDef FLASH_OB_WRPConfig(uint32_t WRPArea, uint32_t WRPStartOffset, uint32_t WRD
  84:Drivers/STM32L4xx_HAL_Driver/Src/stm32l4xx_hal_flash_ex.c **** static HAL_StatusTypeDef FLASH_OB_RDPConfig(uint32_t RDPLevel);
  85:Drivers/STM32L4xx_HAL_Driver/Src/stm32l4xx_hal_flash_ex.c **** static HAL_StatusTypeDef FLASH_OB_UserConfig(uint32_t UserType, uint32_t UserConfig);
  86:Drivers/STM32L4xx_HAL_Driver/Src/stm32l4xx_hal_flash_ex.c **** static HAL_StatusTypeDef FLASH_OB_PCROPConfig(uint32_t PCROPConfig, uint32_t PCROPStartAddr, uint32
  87:Drivers/STM32L4xx_HAL_Driver/Src/stm32l4xx_hal_flash_ex.c **** static void              FLASH_OB_GetWRP(uint32_t WRPArea, uint32_t * WRPStartOffset, uint32_t * WR
ARM GAS  /tmp/cc5sw4Du.s 			page 3


  88:Drivers/STM32L4xx_HAL_Driver/Src/stm32l4xx_hal_flash_ex.c **** static uint32_t          FLASH_OB_GetRDP(void);
  89:Drivers/STM32L4xx_HAL_Driver/Src/stm32l4xx_hal_flash_ex.c **** static uint32_t          FLASH_OB_GetUser(void);
  90:Drivers/STM32L4xx_HAL_Driver/Src/stm32l4xx_hal_flash_ex.c **** static void              FLASH_OB_GetPCROP(uint32_t * PCROPConfig, uint32_t * PCROPStartAddr, uint3
  91:Drivers/STM32L4xx_HAL_Driver/Src/stm32l4xx_hal_flash_ex.c **** /**
  92:Drivers/STM32L4xx_HAL_Driver/Src/stm32l4xx_hal_flash_ex.c ****   * @}
  93:Drivers/STM32L4xx_HAL_Driver/Src/stm32l4xx_hal_flash_ex.c ****   */
  94:Drivers/STM32L4xx_HAL_Driver/Src/stm32l4xx_hal_flash_ex.c **** 
  95:Drivers/STM32L4xx_HAL_Driver/Src/stm32l4xx_hal_flash_ex.c **** /* Exported functions -------------------------------------------------------*/
  96:Drivers/STM32L4xx_HAL_Driver/Src/stm32l4xx_hal_flash_ex.c **** /** @defgroup FLASHEx_Exported_Functions FLASHEx Exported Functions
  97:Drivers/STM32L4xx_HAL_Driver/Src/stm32l4xx_hal_flash_ex.c ****   * @{
  98:Drivers/STM32L4xx_HAL_Driver/Src/stm32l4xx_hal_flash_ex.c ****   */
  99:Drivers/STM32L4xx_HAL_Driver/Src/stm32l4xx_hal_flash_ex.c **** 
 100:Drivers/STM32L4xx_HAL_Driver/Src/stm32l4xx_hal_flash_ex.c **** /** @defgroup FLASHEx_Exported_Functions_Group1 Extended IO operation functions
 101:Drivers/STM32L4xx_HAL_Driver/Src/stm32l4xx_hal_flash_ex.c ****  *  @brief   Extended IO operation functions
 102:Drivers/STM32L4xx_HAL_Driver/Src/stm32l4xx_hal_flash_ex.c ****  *
 103:Drivers/STM32L4xx_HAL_Driver/Src/stm32l4xx_hal_flash_ex.c **** @verbatim
 104:Drivers/STM32L4xx_HAL_Driver/Src/stm32l4xx_hal_flash_ex.c ****  ===============================================================================
 105:Drivers/STM32L4xx_HAL_Driver/Src/stm32l4xx_hal_flash_ex.c ****                 ##### Extended programming operation functions #####
 106:Drivers/STM32L4xx_HAL_Driver/Src/stm32l4xx_hal_flash_ex.c ****  ===============================================================================
 107:Drivers/STM32L4xx_HAL_Driver/Src/stm32l4xx_hal_flash_ex.c ****     [..]
 108:Drivers/STM32L4xx_HAL_Driver/Src/stm32l4xx_hal_flash_ex.c ****     This subsection provides a set of functions allowing to manage the Extended FLASH
 109:Drivers/STM32L4xx_HAL_Driver/Src/stm32l4xx_hal_flash_ex.c ****     programming operations Operations.
 110:Drivers/STM32L4xx_HAL_Driver/Src/stm32l4xx_hal_flash_ex.c **** 
 111:Drivers/STM32L4xx_HAL_Driver/Src/stm32l4xx_hal_flash_ex.c **** @endverbatim
 112:Drivers/STM32L4xx_HAL_Driver/Src/stm32l4xx_hal_flash_ex.c ****   * @{
 113:Drivers/STM32L4xx_HAL_Driver/Src/stm32l4xx_hal_flash_ex.c ****   */
 114:Drivers/STM32L4xx_HAL_Driver/Src/stm32l4xx_hal_flash_ex.c **** /**
 115:Drivers/STM32L4xx_HAL_Driver/Src/stm32l4xx_hal_flash_ex.c ****   * @brief  Perform a mass erase or erase the specified FLASH memory pages.
 116:Drivers/STM32L4xx_HAL_Driver/Src/stm32l4xx_hal_flash_ex.c ****   * @param[in]  pEraseInit: pointer to an FLASH_EraseInitTypeDef structure that
 117:Drivers/STM32L4xx_HAL_Driver/Src/stm32l4xx_hal_flash_ex.c ****   *         contains the configuration information for the erasing.
 118:Drivers/STM32L4xx_HAL_Driver/Src/stm32l4xx_hal_flash_ex.c ****   *
 119:Drivers/STM32L4xx_HAL_Driver/Src/stm32l4xx_hal_flash_ex.c ****   * @param[out]  PageError  : pointer to variable that contains the configuration
 120:Drivers/STM32L4xx_HAL_Driver/Src/stm32l4xx_hal_flash_ex.c ****   *         information on faulty page in case of error (0xFFFFFFFF means that all
 121:Drivers/STM32L4xx_HAL_Driver/Src/stm32l4xx_hal_flash_ex.c ****   *         the pages have been correctly erased)
 122:Drivers/STM32L4xx_HAL_Driver/Src/stm32l4xx_hal_flash_ex.c ****   *
 123:Drivers/STM32L4xx_HAL_Driver/Src/stm32l4xx_hal_flash_ex.c ****   * @retval HAL Status
 124:Drivers/STM32L4xx_HAL_Driver/Src/stm32l4xx_hal_flash_ex.c ****   */
 125:Drivers/STM32L4xx_HAL_Driver/Src/stm32l4xx_hal_flash_ex.c **** HAL_StatusTypeDef HAL_FLASHEx_Erase(FLASH_EraseInitTypeDef *pEraseInit, uint32_t *PageError)
 126:Drivers/STM32L4xx_HAL_Driver/Src/stm32l4xx_hal_flash_ex.c **** {
 127:Drivers/STM32L4xx_HAL_Driver/Src/stm32l4xx_hal_flash_ex.c ****   HAL_StatusTypeDef status;
 128:Drivers/STM32L4xx_HAL_Driver/Src/stm32l4xx_hal_flash_ex.c ****   uint32_t page_index;
 129:Drivers/STM32L4xx_HAL_Driver/Src/stm32l4xx_hal_flash_ex.c **** 
 130:Drivers/STM32L4xx_HAL_Driver/Src/stm32l4xx_hal_flash_ex.c ****   /* Process Locked */
 131:Drivers/STM32L4xx_HAL_Driver/Src/stm32l4xx_hal_flash_ex.c ****   __HAL_LOCK(&pFlash);
 132:Drivers/STM32L4xx_HAL_Driver/Src/stm32l4xx_hal_flash_ex.c **** 
 133:Drivers/STM32L4xx_HAL_Driver/Src/stm32l4xx_hal_flash_ex.c ****   /* Check the parameters */
 134:Drivers/STM32L4xx_HAL_Driver/Src/stm32l4xx_hal_flash_ex.c ****   assert_param(IS_FLASH_TYPEERASE(pEraseInit->TypeErase));
 135:Drivers/STM32L4xx_HAL_Driver/Src/stm32l4xx_hal_flash_ex.c **** 
 136:Drivers/STM32L4xx_HAL_Driver/Src/stm32l4xx_hal_flash_ex.c ****   /* Wait for last operation to be completed */
 137:Drivers/STM32L4xx_HAL_Driver/Src/stm32l4xx_hal_flash_ex.c ****   status = FLASH_WaitForLastOperation((uint32_t)FLASH_TIMEOUT_VALUE);
 138:Drivers/STM32L4xx_HAL_Driver/Src/stm32l4xx_hal_flash_ex.c **** 
 139:Drivers/STM32L4xx_HAL_Driver/Src/stm32l4xx_hal_flash_ex.c ****   if (status == HAL_OK)
 140:Drivers/STM32L4xx_HAL_Driver/Src/stm32l4xx_hal_flash_ex.c ****   {
 141:Drivers/STM32L4xx_HAL_Driver/Src/stm32l4xx_hal_flash_ex.c ****     pFlash.ErrorCode = HAL_FLASH_ERROR_NONE;
 142:Drivers/STM32L4xx_HAL_Driver/Src/stm32l4xx_hal_flash_ex.c **** 
 143:Drivers/STM32L4xx_HAL_Driver/Src/stm32l4xx_hal_flash_ex.c ****     /* Deactivate the cache if they are activated to avoid data misbehavior */
 144:Drivers/STM32L4xx_HAL_Driver/Src/stm32l4xx_hal_flash_ex.c ****     if(READ_BIT(FLASH->ACR, FLASH_ACR_ICEN) != 0U)
ARM GAS  /tmp/cc5sw4Du.s 			page 4


 145:Drivers/STM32L4xx_HAL_Driver/Src/stm32l4xx_hal_flash_ex.c ****     {
 146:Drivers/STM32L4xx_HAL_Driver/Src/stm32l4xx_hal_flash_ex.c ****       if(READ_BIT(FLASH->ACR, FLASH_ACR_DCEN) != 0U)
 147:Drivers/STM32L4xx_HAL_Driver/Src/stm32l4xx_hal_flash_ex.c ****       {
 148:Drivers/STM32L4xx_HAL_Driver/Src/stm32l4xx_hal_flash_ex.c ****         /* Disable data cache  */
 149:Drivers/STM32L4xx_HAL_Driver/Src/stm32l4xx_hal_flash_ex.c ****         __HAL_FLASH_DATA_CACHE_DISABLE();
 150:Drivers/STM32L4xx_HAL_Driver/Src/stm32l4xx_hal_flash_ex.c ****         pFlash.CacheToReactivate = FLASH_CACHE_ICACHE_DCACHE_ENABLED;
 151:Drivers/STM32L4xx_HAL_Driver/Src/stm32l4xx_hal_flash_ex.c ****       }
 152:Drivers/STM32L4xx_HAL_Driver/Src/stm32l4xx_hal_flash_ex.c ****       else
 153:Drivers/STM32L4xx_HAL_Driver/Src/stm32l4xx_hal_flash_ex.c ****       {
 154:Drivers/STM32L4xx_HAL_Driver/Src/stm32l4xx_hal_flash_ex.c ****         pFlash.CacheToReactivate = FLASH_CACHE_ICACHE_ENABLED;
 155:Drivers/STM32L4xx_HAL_Driver/Src/stm32l4xx_hal_flash_ex.c ****       }
 156:Drivers/STM32L4xx_HAL_Driver/Src/stm32l4xx_hal_flash_ex.c ****     }
 157:Drivers/STM32L4xx_HAL_Driver/Src/stm32l4xx_hal_flash_ex.c ****     else if(READ_BIT(FLASH->ACR, FLASH_ACR_DCEN) != 0U)
 158:Drivers/STM32L4xx_HAL_Driver/Src/stm32l4xx_hal_flash_ex.c ****     {
 159:Drivers/STM32L4xx_HAL_Driver/Src/stm32l4xx_hal_flash_ex.c ****       /* Disable data cache  */
 160:Drivers/STM32L4xx_HAL_Driver/Src/stm32l4xx_hal_flash_ex.c ****       __HAL_FLASH_DATA_CACHE_DISABLE();
 161:Drivers/STM32L4xx_HAL_Driver/Src/stm32l4xx_hal_flash_ex.c ****       pFlash.CacheToReactivate = FLASH_CACHE_DCACHE_ENABLED;
 162:Drivers/STM32L4xx_HAL_Driver/Src/stm32l4xx_hal_flash_ex.c ****     }
 163:Drivers/STM32L4xx_HAL_Driver/Src/stm32l4xx_hal_flash_ex.c ****     else
 164:Drivers/STM32L4xx_HAL_Driver/Src/stm32l4xx_hal_flash_ex.c ****     {
 165:Drivers/STM32L4xx_HAL_Driver/Src/stm32l4xx_hal_flash_ex.c ****       pFlash.CacheToReactivate = FLASH_CACHE_DISABLED;
 166:Drivers/STM32L4xx_HAL_Driver/Src/stm32l4xx_hal_flash_ex.c ****     }
 167:Drivers/STM32L4xx_HAL_Driver/Src/stm32l4xx_hal_flash_ex.c **** 
 168:Drivers/STM32L4xx_HAL_Driver/Src/stm32l4xx_hal_flash_ex.c ****     if (pEraseInit->TypeErase == FLASH_TYPEERASE_MASSERASE)
 169:Drivers/STM32L4xx_HAL_Driver/Src/stm32l4xx_hal_flash_ex.c ****     {
 170:Drivers/STM32L4xx_HAL_Driver/Src/stm32l4xx_hal_flash_ex.c ****       /* Mass erase to be done */
 171:Drivers/STM32L4xx_HAL_Driver/Src/stm32l4xx_hal_flash_ex.c ****       FLASH_MassErase(pEraseInit->Banks);
 172:Drivers/STM32L4xx_HAL_Driver/Src/stm32l4xx_hal_flash_ex.c **** 
 173:Drivers/STM32L4xx_HAL_Driver/Src/stm32l4xx_hal_flash_ex.c ****       /* Wait for last operation to be completed */
 174:Drivers/STM32L4xx_HAL_Driver/Src/stm32l4xx_hal_flash_ex.c ****       status = FLASH_WaitForLastOperation((uint32_t)FLASH_TIMEOUT_VALUE);
 175:Drivers/STM32L4xx_HAL_Driver/Src/stm32l4xx_hal_flash_ex.c **** 
 176:Drivers/STM32L4xx_HAL_Driver/Src/stm32l4xx_hal_flash_ex.c **** #if defined (STM32L471xx) || defined (STM32L475xx) || defined (STM32L476xx) || defined (STM32L485xx
 177:Drivers/STM32L4xx_HAL_Driver/Src/stm32l4xx_hal_flash_ex.c ****     defined (STM32L496xx) || defined (STM32L4A6xx) || \
 178:Drivers/STM32L4xx_HAL_Driver/Src/stm32l4xx_hal_flash_ex.c ****     defined (STM32L4P5xx) || defined (STM32L4Q5xx) || \
 179:Drivers/STM32L4xx_HAL_Driver/Src/stm32l4xx_hal_flash_ex.c ****     defined (STM32L4R5xx) || defined (STM32L4R7xx) || defined (STM32L4R9xx) || defined (STM32L4S5xx
 180:Drivers/STM32L4xx_HAL_Driver/Src/stm32l4xx_hal_flash_ex.c ****       /* If the erase operation is completed, disable the MER1 and MER2 Bits */
 181:Drivers/STM32L4xx_HAL_Driver/Src/stm32l4xx_hal_flash_ex.c ****       CLEAR_BIT(FLASH->CR, (FLASH_CR_MER1 | FLASH_CR_MER2));
 182:Drivers/STM32L4xx_HAL_Driver/Src/stm32l4xx_hal_flash_ex.c **** #else
 183:Drivers/STM32L4xx_HAL_Driver/Src/stm32l4xx_hal_flash_ex.c ****       /* If the erase operation is completed, disable the MER1 Bit */
 184:Drivers/STM32L4xx_HAL_Driver/Src/stm32l4xx_hal_flash_ex.c ****       CLEAR_BIT(FLASH->CR, (FLASH_CR_MER1));
 185:Drivers/STM32L4xx_HAL_Driver/Src/stm32l4xx_hal_flash_ex.c **** #endif
 186:Drivers/STM32L4xx_HAL_Driver/Src/stm32l4xx_hal_flash_ex.c ****     }
 187:Drivers/STM32L4xx_HAL_Driver/Src/stm32l4xx_hal_flash_ex.c ****     else
 188:Drivers/STM32L4xx_HAL_Driver/Src/stm32l4xx_hal_flash_ex.c ****     {
 189:Drivers/STM32L4xx_HAL_Driver/Src/stm32l4xx_hal_flash_ex.c ****       /*Initialization of PageError variable*/
 190:Drivers/STM32L4xx_HAL_Driver/Src/stm32l4xx_hal_flash_ex.c ****       *PageError = 0xFFFFFFFFU;
 191:Drivers/STM32L4xx_HAL_Driver/Src/stm32l4xx_hal_flash_ex.c **** 
 192:Drivers/STM32L4xx_HAL_Driver/Src/stm32l4xx_hal_flash_ex.c ****       for(page_index = pEraseInit->Page; page_index < (pEraseInit->Page + pEraseInit->NbPages); pag
 193:Drivers/STM32L4xx_HAL_Driver/Src/stm32l4xx_hal_flash_ex.c ****       {
 194:Drivers/STM32L4xx_HAL_Driver/Src/stm32l4xx_hal_flash_ex.c ****         FLASH_PageErase(page_index, pEraseInit->Banks);
 195:Drivers/STM32L4xx_HAL_Driver/Src/stm32l4xx_hal_flash_ex.c **** 
 196:Drivers/STM32L4xx_HAL_Driver/Src/stm32l4xx_hal_flash_ex.c ****         /* Wait for last operation to be completed */
 197:Drivers/STM32L4xx_HAL_Driver/Src/stm32l4xx_hal_flash_ex.c ****         status = FLASH_WaitForLastOperation((uint32_t)FLASH_TIMEOUT_VALUE);
 198:Drivers/STM32L4xx_HAL_Driver/Src/stm32l4xx_hal_flash_ex.c **** 
 199:Drivers/STM32L4xx_HAL_Driver/Src/stm32l4xx_hal_flash_ex.c ****         /* If the erase operation is completed, disable the PER Bit */
 200:Drivers/STM32L4xx_HAL_Driver/Src/stm32l4xx_hal_flash_ex.c ****         CLEAR_BIT(FLASH->CR, (FLASH_CR_PER | FLASH_CR_PNB));
 201:Drivers/STM32L4xx_HAL_Driver/Src/stm32l4xx_hal_flash_ex.c **** 
ARM GAS  /tmp/cc5sw4Du.s 			page 5


 202:Drivers/STM32L4xx_HAL_Driver/Src/stm32l4xx_hal_flash_ex.c ****         if (status != HAL_OK)
 203:Drivers/STM32L4xx_HAL_Driver/Src/stm32l4xx_hal_flash_ex.c ****         {
 204:Drivers/STM32L4xx_HAL_Driver/Src/stm32l4xx_hal_flash_ex.c ****           /* In case of error, stop erase procedure and return the faulty address */
 205:Drivers/STM32L4xx_HAL_Driver/Src/stm32l4xx_hal_flash_ex.c ****           *PageError = page_index;
 206:Drivers/STM32L4xx_HAL_Driver/Src/stm32l4xx_hal_flash_ex.c ****           break;
 207:Drivers/STM32L4xx_HAL_Driver/Src/stm32l4xx_hal_flash_ex.c ****         }
 208:Drivers/STM32L4xx_HAL_Driver/Src/stm32l4xx_hal_flash_ex.c ****       }
 209:Drivers/STM32L4xx_HAL_Driver/Src/stm32l4xx_hal_flash_ex.c ****     }
 210:Drivers/STM32L4xx_HAL_Driver/Src/stm32l4xx_hal_flash_ex.c **** 
 211:Drivers/STM32L4xx_HAL_Driver/Src/stm32l4xx_hal_flash_ex.c ****     /* Flush the caches to be sure of the data consistency */
 212:Drivers/STM32L4xx_HAL_Driver/Src/stm32l4xx_hal_flash_ex.c ****     FLASH_FlushCaches();
 213:Drivers/STM32L4xx_HAL_Driver/Src/stm32l4xx_hal_flash_ex.c ****   }
 214:Drivers/STM32L4xx_HAL_Driver/Src/stm32l4xx_hal_flash_ex.c **** 
 215:Drivers/STM32L4xx_HAL_Driver/Src/stm32l4xx_hal_flash_ex.c ****   /* Process Unlocked */
 216:Drivers/STM32L4xx_HAL_Driver/Src/stm32l4xx_hal_flash_ex.c ****   __HAL_UNLOCK(&pFlash);
 217:Drivers/STM32L4xx_HAL_Driver/Src/stm32l4xx_hal_flash_ex.c **** 
 218:Drivers/STM32L4xx_HAL_Driver/Src/stm32l4xx_hal_flash_ex.c ****   return status;
 219:Drivers/STM32L4xx_HAL_Driver/Src/stm32l4xx_hal_flash_ex.c **** }
 220:Drivers/STM32L4xx_HAL_Driver/Src/stm32l4xx_hal_flash_ex.c **** 
 221:Drivers/STM32L4xx_HAL_Driver/Src/stm32l4xx_hal_flash_ex.c **** /**
 222:Drivers/STM32L4xx_HAL_Driver/Src/stm32l4xx_hal_flash_ex.c ****   * @brief  Perform a mass erase or erase the specified FLASH memory pages with interrupt enabled.
 223:Drivers/STM32L4xx_HAL_Driver/Src/stm32l4xx_hal_flash_ex.c ****   * @param  pEraseInit pointer to an FLASH_EraseInitTypeDef structure that
 224:Drivers/STM32L4xx_HAL_Driver/Src/stm32l4xx_hal_flash_ex.c ****   *         contains the configuration information for the erasing.
 225:Drivers/STM32L4xx_HAL_Driver/Src/stm32l4xx_hal_flash_ex.c ****   *
 226:Drivers/STM32L4xx_HAL_Driver/Src/stm32l4xx_hal_flash_ex.c ****   * @retval HAL Status
 227:Drivers/STM32L4xx_HAL_Driver/Src/stm32l4xx_hal_flash_ex.c ****   */
 228:Drivers/STM32L4xx_HAL_Driver/Src/stm32l4xx_hal_flash_ex.c **** HAL_StatusTypeDef HAL_FLASHEx_Erase_IT(FLASH_EraseInitTypeDef *pEraseInit)
 229:Drivers/STM32L4xx_HAL_Driver/Src/stm32l4xx_hal_flash_ex.c **** {
 230:Drivers/STM32L4xx_HAL_Driver/Src/stm32l4xx_hal_flash_ex.c ****   HAL_StatusTypeDef status = HAL_OK;
 231:Drivers/STM32L4xx_HAL_Driver/Src/stm32l4xx_hal_flash_ex.c **** 
 232:Drivers/STM32L4xx_HAL_Driver/Src/stm32l4xx_hal_flash_ex.c ****   /* Process Locked */
 233:Drivers/STM32L4xx_HAL_Driver/Src/stm32l4xx_hal_flash_ex.c ****   __HAL_LOCK(&pFlash);
 234:Drivers/STM32L4xx_HAL_Driver/Src/stm32l4xx_hal_flash_ex.c **** 
 235:Drivers/STM32L4xx_HAL_Driver/Src/stm32l4xx_hal_flash_ex.c ****   /* Check the parameters */
 236:Drivers/STM32L4xx_HAL_Driver/Src/stm32l4xx_hal_flash_ex.c ****   assert_param(IS_FLASH_TYPEERASE(pEraseInit->TypeErase));
 237:Drivers/STM32L4xx_HAL_Driver/Src/stm32l4xx_hal_flash_ex.c **** 
 238:Drivers/STM32L4xx_HAL_Driver/Src/stm32l4xx_hal_flash_ex.c ****   pFlash.ErrorCode = HAL_FLASH_ERROR_NONE;
 239:Drivers/STM32L4xx_HAL_Driver/Src/stm32l4xx_hal_flash_ex.c **** 
 240:Drivers/STM32L4xx_HAL_Driver/Src/stm32l4xx_hal_flash_ex.c ****   /* Deactivate the cache if they are activated to avoid data misbehavior */
 241:Drivers/STM32L4xx_HAL_Driver/Src/stm32l4xx_hal_flash_ex.c ****   if(READ_BIT(FLASH->ACR, FLASH_ACR_ICEN) != 0U)
 242:Drivers/STM32L4xx_HAL_Driver/Src/stm32l4xx_hal_flash_ex.c ****   {
 243:Drivers/STM32L4xx_HAL_Driver/Src/stm32l4xx_hal_flash_ex.c ****     if(READ_BIT(FLASH->ACR, FLASH_ACR_DCEN) != 0U)
 244:Drivers/STM32L4xx_HAL_Driver/Src/stm32l4xx_hal_flash_ex.c ****     {
 245:Drivers/STM32L4xx_HAL_Driver/Src/stm32l4xx_hal_flash_ex.c ****       /* Disable data cache  */
 246:Drivers/STM32L4xx_HAL_Driver/Src/stm32l4xx_hal_flash_ex.c ****       __HAL_FLASH_DATA_CACHE_DISABLE();
 247:Drivers/STM32L4xx_HAL_Driver/Src/stm32l4xx_hal_flash_ex.c ****       pFlash.CacheToReactivate = FLASH_CACHE_ICACHE_DCACHE_ENABLED;
 248:Drivers/STM32L4xx_HAL_Driver/Src/stm32l4xx_hal_flash_ex.c ****     }
 249:Drivers/STM32L4xx_HAL_Driver/Src/stm32l4xx_hal_flash_ex.c ****     else
 250:Drivers/STM32L4xx_HAL_Driver/Src/stm32l4xx_hal_flash_ex.c ****     {
 251:Drivers/STM32L4xx_HAL_Driver/Src/stm32l4xx_hal_flash_ex.c ****       pFlash.CacheToReactivate = FLASH_CACHE_ICACHE_ENABLED;
 252:Drivers/STM32L4xx_HAL_Driver/Src/stm32l4xx_hal_flash_ex.c ****     }
 253:Drivers/STM32L4xx_HAL_Driver/Src/stm32l4xx_hal_flash_ex.c ****   }
 254:Drivers/STM32L4xx_HAL_Driver/Src/stm32l4xx_hal_flash_ex.c ****   else if(READ_BIT(FLASH->ACR, FLASH_ACR_DCEN) != 0U)
 255:Drivers/STM32L4xx_HAL_Driver/Src/stm32l4xx_hal_flash_ex.c ****   {
 256:Drivers/STM32L4xx_HAL_Driver/Src/stm32l4xx_hal_flash_ex.c ****     /* Disable data cache  */
 257:Drivers/STM32L4xx_HAL_Driver/Src/stm32l4xx_hal_flash_ex.c ****     __HAL_FLASH_DATA_CACHE_DISABLE();
 258:Drivers/STM32L4xx_HAL_Driver/Src/stm32l4xx_hal_flash_ex.c ****     pFlash.CacheToReactivate = FLASH_CACHE_DCACHE_ENABLED;
ARM GAS  /tmp/cc5sw4Du.s 			page 6


 259:Drivers/STM32L4xx_HAL_Driver/Src/stm32l4xx_hal_flash_ex.c ****   }
 260:Drivers/STM32L4xx_HAL_Driver/Src/stm32l4xx_hal_flash_ex.c ****   else
 261:Drivers/STM32L4xx_HAL_Driver/Src/stm32l4xx_hal_flash_ex.c ****   {
 262:Drivers/STM32L4xx_HAL_Driver/Src/stm32l4xx_hal_flash_ex.c ****     pFlash.CacheToReactivate = FLASH_CACHE_DISABLED;
 263:Drivers/STM32L4xx_HAL_Driver/Src/stm32l4xx_hal_flash_ex.c ****   }
 264:Drivers/STM32L4xx_HAL_Driver/Src/stm32l4xx_hal_flash_ex.c **** 
 265:Drivers/STM32L4xx_HAL_Driver/Src/stm32l4xx_hal_flash_ex.c ****   /* Enable End of Operation and Error interrupts */
 266:Drivers/STM32L4xx_HAL_Driver/Src/stm32l4xx_hal_flash_ex.c ****   __HAL_FLASH_ENABLE_IT(FLASH_IT_EOP | FLASH_IT_OPERR);
 267:Drivers/STM32L4xx_HAL_Driver/Src/stm32l4xx_hal_flash_ex.c **** 
 268:Drivers/STM32L4xx_HAL_Driver/Src/stm32l4xx_hal_flash_ex.c ****   pFlash.Bank = pEraseInit->Banks;
 269:Drivers/STM32L4xx_HAL_Driver/Src/stm32l4xx_hal_flash_ex.c **** 
 270:Drivers/STM32L4xx_HAL_Driver/Src/stm32l4xx_hal_flash_ex.c ****   if (pEraseInit->TypeErase == FLASH_TYPEERASE_MASSERASE)
 271:Drivers/STM32L4xx_HAL_Driver/Src/stm32l4xx_hal_flash_ex.c ****   {
 272:Drivers/STM32L4xx_HAL_Driver/Src/stm32l4xx_hal_flash_ex.c ****     /* Mass erase to be done */
 273:Drivers/STM32L4xx_HAL_Driver/Src/stm32l4xx_hal_flash_ex.c ****     pFlash.ProcedureOnGoing = FLASH_PROC_MASS_ERASE;
 274:Drivers/STM32L4xx_HAL_Driver/Src/stm32l4xx_hal_flash_ex.c ****     FLASH_MassErase(pEraseInit->Banks);
 275:Drivers/STM32L4xx_HAL_Driver/Src/stm32l4xx_hal_flash_ex.c ****   }
 276:Drivers/STM32L4xx_HAL_Driver/Src/stm32l4xx_hal_flash_ex.c ****   else
 277:Drivers/STM32L4xx_HAL_Driver/Src/stm32l4xx_hal_flash_ex.c ****   {
 278:Drivers/STM32L4xx_HAL_Driver/Src/stm32l4xx_hal_flash_ex.c ****     /* Erase by page to be done */
 279:Drivers/STM32L4xx_HAL_Driver/Src/stm32l4xx_hal_flash_ex.c ****     pFlash.ProcedureOnGoing = FLASH_PROC_PAGE_ERASE;
 280:Drivers/STM32L4xx_HAL_Driver/Src/stm32l4xx_hal_flash_ex.c ****     pFlash.NbPagesToErase = pEraseInit->NbPages;
 281:Drivers/STM32L4xx_HAL_Driver/Src/stm32l4xx_hal_flash_ex.c ****     pFlash.Page = pEraseInit->Page;
 282:Drivers/STM32L4xx_HAL_Driver/Src/stm32l4xx_hal_flash_ex.c **** 
 283:Drivers/STM32L4xx_HAL_Driver/Src/stm32l4xx_hal_flash_ex.c ****     /*Erase 1st page and wait for IT */
 284:Drivers/STM32L4xx_HAL_Driver/Src/stm32l4xx_hal_flash_ex.c ****     FLASH_PageErase(pEraseInit->Page, pEraseInit->Banks);
 285:Drivers/STM32L4xx_HAL_Driver/Src/stm32l4xx_hal_flash_ex.c ****   }
 286:Drivers/STM32L4xx_HAL_Driver/Src/stm32l4xx_hal_flash_ex.c **** 
 287:Drivers/STM32L4xx_HAL_Driver/Src/stm32l4xx_hal_flash_ex.c ****   return status;
 288:Drivers/STM32L4xx_HAL_Driver/Src/stm32l4xx_hal_flash_ex.c **** }
 289:Drivers/STM32L4xx_HAL_Driver/Src/stm32l4xx_hal_flash_ex.c **** 
 290:Drivers/STM32L4xx_HAL_Driver/Src/stm32l4xx_hal_flash_ex.c **** /**
 291:Drivers/STM32L4xx_HAL_Driver/Src/stm32l4xx_hal_flash_ex.c ****   * @brief  Program Option bytes.
 292:Drivers/STM32L4xx_HAL_Driver/Src/stm32l4xx_hal_flash_ex.c ****   * @param  pOBInit pointer to an FLASH_OBInitStruct structure that
 293:Drivers/STM32L4xx_HAL_Driver/Src/stm32l4xx_hal_flash_ex.c ****   *         contains the configuration information for the programming.
 294:Drivers/STM32L4xx_HAL_Driver/Src/stm32l4xx_hal_flash_ex.c ****   *
 295:Drivers/STM32L4xx_HAL_Driver/Src/stm32l4xx_hal_flash_ex.c ****   * @retval HAL Status
 296:Drivers/STM32L4xx_HAL_Driver/Src/stm32l4xx_hal_flash_ex.c ****   */
 297:Drivers/STM32L4xx_HAL_Driver/Src/stm32l4xx_hal_flash_ex.c **** HAL_StatusTypeDef HAL_FLASHEx_OBProgram(FLASH_OBProgramInitTypeDef *pOBInit)
 298:Drivers/STM32L4xx_HAL_Driver/Src/stm32l4xx_hal_flash_ex.c **** {
 299:Drivers/STM32L4xx_HAL_Driver/Src/stm32l4xx_hal_flash_ex.c ****   HAL_StatusTypeDef status = HAL_OK;
 300:Drivers/STM32L4xx_HAL_Driver/Src/stm32l4xx_hal_flash_ex.c **** 
 301:Drivers/STM32L4xx_HAL_Driver/Src/stm32l4xx_hal_flash_ex.c ****   /* Process Locked */
 302:Drivers/STM32L4xx_HAL_Driver/Src/stm32l4xx_hal_flash_ex.c ****   __HAL_LOCK(&pFlash);
 303:Drivers/STM32L4xx_HAL_Driver/Src/stm32l4xx_hal_flash_ex.c **** 
 304:Drivers/STM32L4xx_HAL_Driver/Src/stm32l4xx_hal_flash_ex.c ****   /* Check the parameters */
 305:Drivers/STM32L4xx_HAL_Driver/Src/stm32l4xx_hal_flash_ex.c ****   assert_param(IS_OPTIONBYTE(pOBInit->OptionType));
 306:Drivers/STM32L4xx_HAL_Driver/Src/stm32l4xx_hal_flash_ex.c **** 
 307:Drivers/STM32L4xx_HAL_Driver/Src/stm32l4xx_hal_flash_ex.c ****   pFlash.ErrorCode = HAL_FLASH_ERROR_NONE;
 308:Drivers/STM32L4xx_HAL_Driver/Src/stm32l4xx_hal_flash_ex.c **** 
 309:Drivers/STM32L4xx_HAL_Driver/Src/stm32l4xx_hal_flash_ex.c ****   /* Write protection configuration */
 310:Drivers/STM32L4xx_HAL_Driver/Src/stm32l4xx_hal_flash_ex.c ****   if((pOBInit->OptionType & OPTIONBYTE_WRP) != 0U)
 311:Drivers/STM32L4xx_HAL_Driver/Src/stm32l4xx_hal_flash_ex.c ****   {
 312:Drivers/STM32L4xx_HAL_Driver/Src/stm32l4xx_hal_flash_ex.c ****     /* Configure of Write protection on the selected area */
 313:Drivers/STM32L4xx_HAL_Driver/Src/stm32l4xx_hal_flash_ex.c ****     if(FLASH_OB_WRPConfig(pOBInit->WRPArea, pOBInit->WRPStartOffset, pOBInit->WRPEndOffset) != HAL_
 314:Drivers/STM32L4xx_HAL_Driver/Src/stm32l4xx_hal_flash_ex.c ****     {
 315:Drivers/STM32L4xx_HAL_Driver/Src/stm32l4xx_hal_flash_ex.c ****       status = HAL_ERROR;
ARM GAS  /tmp/cc5sw4Du.s 			page 7


 316:Drivers/STM32L4xx_HAL_Driver/Src/stm32l4xx_hal_flash_ex.c ****     }
 317:Drivers/STM32L4xx_HAL_Driver/Src/stm32l4xx_hal_flash_ex.c **** 
 318:Drivers/STM32L4xx_HAL_Driver/Src/stm32l4xx_hal_flash_ex.c ****   }
 319:Drivers/STM32L4xx_HAL_Driver/Src/stm32l4xx_hal_flash_ex.c **** 
 320:Drivers/STM32L4xx_HAL_Driver/Src/stm32l4xx_hal_flash_ex.c ****   /* Read protection configuration */
 321:Drivers/STM32L4xx_HAL_Driver/Src/stm32l4xx_hal_flash_ex.c ****   if((pOBInit->OptionType & OPTIONBYTE_RDP) != 0U)
 322:Drivers/STM32L4xx_HAL_Driver/Src/stm32l4xx_hal_flash_ex.c ****   {
 323:Drivers/STM32L4xx_HAL_Driver/Src/stm32l4xx_hal_flash_ex.c ****     /* Configure the Read protection level */
 324:Drivers/STM32L4xx_HAL_Driver/Src/stm32l4xx_hal_flash_ex.c ****     if(FLASH_OB_RDPConfig(pOBInit->RDPLevel) != HAL_OK)
 325:Drivers/STM32L4xx_HAL_Driver/Src/stm32l4xx_hal_flash_ex.c ****     {
 326:Drivers/STM32L4xx_HAL_Driver/Src/stm32l4xx_hal_flash_ex.c ****       status = HAL_ERROR;
 327:Drivers/STM32L4xx_HAL_Driver/Src/stm32l4xx_hal_flash_ex.c ****     }
 328:Drivers/STM32L4xx_HAL_Driver/Src/stm32l4xx_hal_flash_ex.c ****   }
 329:Drivers/STM32L4xx_HAL_Driver/Src/stm32l4xx_hal_flash_ex.c **** 
 330:Drivers/STM32L4xx_HAL_Driver/Src/stm32l4xx_hal_flash_ex.c ****   /* User Configuration */
 331:Drivers/STM32L4xx_HAL_Driver/Src/stm32l4xx_hal_flash_ex.c ****   if((pOBInit->OptionType & OPTIONBYTE_USER) != 0U)
 332:Drivers/STM32L4xx_HAL_Driver/Src/stm32l4xx_hal_flash_ex.c ****   {
 333:Drivers/STM32L4xx_HAL_Driver/Src/stm32l4xx_hal_flash_ex.c ****     /* Configure the user option bytes */
 334:Drivers/STM32L4xx_HAL_Driver/Src/stm32l4xx_hal_flash_ex.c ****     if(FLASH_OB_UserConfig(pOBInit->USERType, pOBInit->USERConfig) != HAL_OK)
 335:Drivers/STM32L4xx_HAL_Driver/Src/stm32l4xx_hal_flash_ex.c ****     {
 336:Drivers/STM32L4xx_HAL_Driver/Src/stm32l4xx_hal_flash_ex.c ****       status = HAL_ERROR;
 337:Drivers/STM32L4xx_HAL_Driver/Src/stm32l4xx_hal_flash_ex.c ****     }
 338:Drivers/STM32L4xx_HAL_Driver/Src/stm32l4xx_hal_flash_ex.c ****   }
 339:Drivers/STM32L4xx_HAL_Driver/Src/stm32l4xx_hal_flash_ex.c **** 
 340:Drivers/STM32L4xx_HAL_Driver/Src/stm32l4xx_hal_flash_ex.c ****   /* PCROP Configuration */
 341:Drivers/STM32L4xx_HAL_Driver/Src/stm32l4xx_hal_flash_ex.c ****   if((pOBInit->OptionType & OPTIONBYTE_PCROP) != 0U)
 342:Drivers/STM32L4xx_HAL_Driver/Src/stm32l4xx_hal_flash_ex.c ****   {
 343:Drivers/STM32L4xx_HAL_Driver/Src/stm32l4xx_hal_flash_ex.c ****     if (pOBInit->PCROPStartAddr != pOBInit->PCROPEndAddr)
 344:Drivers/STM32L4xx_HAL_Driver/Src/stm32l4xx_hal_flash_ex.c ****     {
 345:Drivers/STM32L4xx_HAL_Driver/Src/stm32l4xx_hal_flash_ex.c ****       /* Configure the Proprietary code readout protection */
 346:Drivers/STM32L4xx_HAL_Driver/Src/stm32l4xx_hal_flash_ex.c ****       if(FLASH_OB_PCROPConfig(pOBInit->PCROPConfig, pOBInit->PCROPStartAddr, pOBInit->PCROPEndAddr)
 347:Drivers/STM32L4xx_HAL_Driver/Src/stm32l4xx_hal_flash_ex.c ****       {
 348:Drivers/STM32L4xx_HAL_Driver/Src/stm32l4xx_hal_flash_ex.c ****         status = HAL_ERROR;
 349:Drivers/STM32L4xx_HAL_Driver/Src/stm32l4xx_hal_flash_ex.c ****       }
 350:Drivers/STM32L4xx_HAL_Driver/Src/stm32l4xx_hal_flash_ex.c ****     }
 351:Drivers/STM32L4xx_HAL_Driver/Src/stm32l4xx_hal_flash_ex.c ****   }
 352:Drivers/STM32L4xx_HAL_Driver/Src/stm32l4xx_hal_flash_ex.c **** 
 353:Drivers/STM32L4xx_HAL_Driver/Src/stm32l4xx_hal_flash_ex.c ****   /* Process Unlocked */
 354:Drivers/STM32L4xx_HAL_Driver/Src/stm32l4xx_hal_flash_ex.c ****   __HAL_UNLOCK(&pFlash);
 355:Drivers/STM32L4xx_HAL_Driver/Src/stm32l4xx_hal_flash_ex.c **** 
 356:Drivers/STM32L4xx_HAL_Driver/Src/stm32l4xx_hal_flash_ex.c ****   return status;
 357:Drivers/STM32L4xx_HAL_Driver/Src/stm32l4xx_hal_flash_ex.c **** }
 358:Drivers/STM32L4xx_HAL_Driver/Src/stm32l4xx_hal_flash_ex.c **** 
 359:Drivers/STM32L4xx_HAL_Driver/Src/stm32l4xx_hal_flash_ex.c **** /**
 360:Drivers/STM32L4xx_HAL_Driver/Src/stm32l4xx_hal_flash_ex.c ****   * @brief  Get the Option bytes configuration.
 361:Drivers/STM32L4xx_HAL_Driver/Src/stm32l4xx_hal_flash_ex.c ****   * @param  pOBInit pointer to an FLASH_OBInitStruct structure that contains the
 362:Drivers/STM32L4xx_HAL_Driver/Src/stm32l4xx_hal_flash_ex.c ****   *                  configuration information.
 363:Drivers/STM32L4xx_HAL_Driver/Src/stm32l4xx_hal_flash_ex.c ****   * @note   The fields pOBInit->WRPArea and pOBInit->PCROPConfig should indicate
 364:Drivers/STM32L4xx_HAL_Driver/Src/stm32l4xx_hal_flash_ex.c ****   *         which area is requested for the WRP and PCROP, else no information will be returned
 365:Drivers/STM32L4xx_HAL_Driver/Src/stm32l4xx_hal_flash_ex.c ****   *
 366:Drivers/STM32L4xx_HAL_Driver/Src/stm32l4xx_hal_flash_ex.c ****   * @retval None
 367:Drivers/STM32L4xx_HAL_Driver/Src/stm32l4xx_hal_flash_ex.c ****   */
 368:Drivers/STM32L4xx_HAL_Driver/Src/stm32l4xx_hal_flash_ex.c **** void HAL_FLASHEx_OBGetConfig(FLASH_OBProgramInitTypeDef *pOBInit)
 369:Drivers/STM32L4xx_HAL_Driver/Src/stm32l4xx_hal_flash_ex.c **** {
 370:Drivers/STM32L4xx_HAL_Driver/Src/stm32l4xx_hal_flash_ex.c ****   pOBInit->OptionType = (OPTIONBYTE_RDP | OPTIONBYTE_USER);
 371:Drivers/STM32L4xx_HAL_Driver/Src/stm32l4xx_hal_flash_ex.c **** 
 372:Drivers/STM32L4xx_HAL_Driver/Src/stm32l4xx_hal_flash_ex.c **** #if defined (STM32L471xx) || defined (STM32L475xx) || defined (STM32L476xx) || defined (STM32L485xx
ARM GAS  /tmp/cc5sw4Du.s 			page 8


 373:Drivers/STM32L4xx_HAL_Driver/Src/stm32l4xx_hal_flash_ex.c ****     defined (STM32L496xx) || defined (STM32L4A6xx) || \
 374:Drivers/STM32L4xx_HAL_Driver/Src/stm32l4xx_hal_flash_ex.c ****     defined (STM32L4P5xx) || defined (STM32L4Q5xx) || \
 375:Drivers/STM32L4xx_HAL_Driver/Src/stm32l4xx_hal_flash_ex.c ****     defined (STM32L4R5xx) || defined (STM32L4R7xx) || defined (STM32L4R9xx) || defined (STM32L4S5xx
 376:Drivers/STM32L4xx_HAL_Driver/Src/stm32l4xx_hal_flash_ex.c ****   if((pOBInit->WRPArea == OB_WRPAREA_BANK1_AREAA) || (pOBInit->WRPArea == OB_WRPAREA_BANK1_AREAB) |
 377:Drivers/STM32L4xx_HAL_Driver/Src/stm32l4xx_hal_flash_ex.c ****      (pOBInit->WRPArea == OB_WRPAREA_BANK2_AREAA) || (pOBInit->WRPArea == OB_WRPAREA_BANK2_AREAB))
 378:Drivers/STM32L4xx_HAL_Driver/Src/stm32l4xx_hal_flash_ex.c **** #else
 379:Drivers/STM32L4xx_HAL_Driver/Src/stm32l4xx_hal_flash_ex.c ****   if((pOBInit->WRPArea == OB_WRPAREA_BANK1_AREAA) || (pOBInit->WRPArea == OB_WRPAREA_BANK1_AREAB))
 380:Drivers/STM32L4xx_HAL_Driver/Src/stm32l4xx_hal_flash_ex.c **** #endif
 381:Drivers/STM32L4xx_HAL_Driver/Src/stm32l4xx_hal_flash_ex.c ****   {
 382:Drivers/STM32L4xx_HAL_Driver/Src/stm32l4xx_hal_flash_ex.c ****     pOBInit->OptionType |= OPTIONBYTE_WRP;
 383:Drivers/STM32L4xx_HAL_Driver/Src/stm32l4xx_hal_flash_ex.c ****     /* Get write protection on the selected area */
 384:Drivers/STM32L4xx_HAL_Driver/Src/stm32l4xx_hal_flash_ex.c ****     FLASH_OB_GetWRP(pOBInit->WRPArea, &(pOBInit->WRPStartOffset), &(pOBInit->WRPEndOffset));
 385:Drivers/STM32L4xx_HAL_Driver/Src/stm32l4xx_hal_flash_ex.c ****   }
 386:Drivers/STM32L4xx_HAL_Driver/Src/stm32l4xx_hal_flash_ex.c **** 
 387:Drivers/STM32L4xx_HAL_Driver/Src/stm32l4xx_hal_flash_ex.c ****   /* Get Read protection level */
 388:Drivers/STM32L4xx_HAL_Driver/Src/stm32l4xx_hal_flash_ex.c ****   pOBInit->RDPLevel = FLASH_OB_GetRDP();
 389:Drivers/STM32L4xx_HAL_Driver/Src/stm32l4xx_hal_flash_ex.c **** 
 390:Drivers/STM32L4xx_HAL_Driver/Src/stm32l4xx_hal_flash_ex.c ****   /* Get the user option bytes */
 391:Drivers/STM32L4xx_HAL_Driver/Src/stm32l4xx_hal_flash_ex.c ****   pOBInit->USERConfig = FLASH_OB_GetUser();
 392:Drivers/STM32L4xx_HAL_Driver/Src/stm32l4xx_hal_flash_ex.c **** 
 393:Drivers/STM32L4xx_HAL_Driver/Src/stm32l4xx_hal_flash_ex.c **** #if defined (STM32L471xx) || defined (STM32L475xx) || defined (STM32L476xx) || defined (STM32L485xx
 394:Drivers/STM32L4xx_HAL_Driver/Src/stm32l4xx_hal_flash_ex.c ****     defined (STM32L496xx) || defined (STM32L4A6xx) || \
 395:Drivers/STM32L4xx_HAL_Driver/Src/stm32l4xx_hal_flash_ex.c ****     defined (STM32L4P5xx) || defined (STM32L4Q5xx) || \
 396:Drivers/STM32L4xx_HAL_Driver/Src/stm32l4xx_hal_flash_ex.c ****     defined (STM32L4R5xx) || defined (STM32L4R7xx) || defined (STM32L4R9xx) || defined (STM32L4S5xx
 397:Drivers/STM32L4xx_HAL_Driver/Src/stm32l4xx_hal_flash_ex.c ****   if((pOBInit->PCROPConfig == FLASH_BANK_1) || (pOBInit->PCROPConfig == FLASH_BANK_2))
 398:Drivers/STM32L4xx_HAL_Driver/Src/stm32l4xx_hal_flash_ex.c **** #else
 399:Drivers/STM32L4xx_HAL_Driver/Src/stm32l4xx_hal_flash_ex.c ****   if(pOBInit->PCROPConfig == FLASH_BANK_1)
 400:Drivers/STM32L4xx_HAL_Driver/Src/stm32l4xx_hal_flash_ex.c **** #endif
 401:Drivers/STM32L4xx_HAL_Driver/Src/stm32l4xx_hal_flash_ex.c ****   {
 402:Drivers/STM32L4xx_HAL_Driver/Src/stm32l4xx_hal_flash_ex.c ****     pOBInit->OptionType |= OPTIONBYTE_PCROP;
 403:Drivers/STM32L4xx_HAL_Driver/Src/stm32l4xx_hal_flash_ex.c ****     /* Get the Proprietary code readout protection */
 404:Drivers/STM32L4xx_HAL_Driver/Src/stm32l4xx_hal_flash_ex.c ****     FLASH_OB_GetPCROP(&(pOBInit->PCROPConfig), &(pOBInit->PCROPStartAddr), &(pOBInit->PCROPEndAddr)
 405:Drivers/STM32L4xx_HAL_Driver/Src/stm32l4xx_hal_flash_ex.c ****   }
 406:Drivers/STM32L4xx_HAL_Driver/Src/stm32l4xx_hal_flash_ex.c **** }
 407:Drivers/STM32L4xx_HAL_Driver/Src/stm32l4xx_hal_flash_ex.c **** 
 408:Drivers/STM32L4xx_HAL_Driver/Src/stm32l4xx_hal_flash_ex.c **** /**
 409:Drivers/STM32L4xx_HAL_Driver/Src/stm32l4xx_hal_flash_ex.c ****   * @}
 410:Drivers/STM32L4xx_HAL_Driver/Src/stm32l4xx_hal_flash_ex.c ****   */
 411:Drivers/STM32L4xx_HAL_Driver/Src/stm32l4xx_hal_flash_ex.c **** 
 412:Drivers/STM32L4xx_HAL_Driver/Src/stm32l4xx_hal_flash_ex.c **** #if defined (FLASH_CFGR_LVEN)
 413:Drivers/STM32L4xx_HAL_Driver/Src/stm32l4xx_hal_flash_ex.c **** /** @defgroup FLASHEx_Exported_Functions_Group2 Extended specific configuration functions
 414:Drivers/STM32L4xx_HAL_Driver/Src/stm32l4xx_hal_flash_ex.c ****  *  @brief   Extended specific configuration functions
 415:Drivers/STM32L4xx_HAL_Driver/Src/stm32l4xx_hal_flash_ex.c ****  *
 416:Drivers/STM32L4xx_HAL_Driver/Src/stm32l4xx_hal_flash_ex.c **** @verbatim
 417:Drivers/STM32L4xx_HAL_Driver/Src/stm32l4xx_hal_flash_ex.c ****  ===============================================================================
 418:Drivers/STM32L4xx_HAL_Driver/Src/stm32l4xx_hal_flash_ex.c ****                 ##### Extended specific configuration functions #####
 419:Drivers/STM32L4xx_HAL_Driver/Src/stm32l4xx_hal_flash_ex.c ****  ===============================================================================
 420:Drivers/STM32L4xx_HAL_Driver/Src/stm32l4xx_hal_flash_ex.c ****     [..]
 421:Drivers/STM32L4xx_HAL_Driver/Src/stm32l4xx_hal_flash_ex.c ****     This subsection provides a set of functions allowing to manage the Extended FLASH
 422:Drivers/STM32L4xx_HAL_Driver/Src/stm32l4xx_hal_flash_ex.c ****     specific configurations.
 423:Drivers/STM32L4xx_HAL_Driver/Src/stm32l4xx_hal_flash_ex.c **** 
 424:Drivers/STM32L4xx_HAL_Driver/Src/stm32l4xx_hal_flash_ex.c **** @endverbatim
 425:Drivers/STM32L4xx_HAL_Driver/Src/stm32l4xx_hal_flash_ex.c ****   * @{
 426:Drivers/STM32L4xx_HAL_Driver/Src/stm32l4xx_hal_flash_ex.c ****   */
 427:Drivers/STM32L4xx_HAL_Driver/Src/stm32l4xx_hal_flash_ex.c **** 
 428:Drivers/STM32L4xx_HAL_Driver/Src/stm32l4xx_hal_flash_ex.c **** /**
 429:Drivers/STM32L4xx_HAL_Driver/Src/stm32l4xx_hal_flash_ex.c ****   * @brief  Configuration of the LVE pin of the Flash (managed by power controller
ARM GAS  /tmp/cc5sw4Du.s 			page 9


 430:Drivers/STM32L4xx_HAL_Driver/Src/stm32l4xx_hal_flash_ex.c ****   *         or forced to low in order to use an external SMPS)
 431:Drivers/STM32L4xx_HAL_Driver/Src/stm32l4xx_hal_flash_ex.c ****   * @param  ConfigLVE Configuration of the LVE pin,
 432:Drivers/STM32L4xx_HAL_Driver/Src/stm32l4xx_hal_flash_ex.c ****   *              This parameter can be one of the following values:
 433:Drivers/STM32L4xx_HAL_Driver/Src/stm32l4xx_hal_flash_ex.c ****   *                @arg FLASH_LVE_PIN_CTRL: LVE FLASH pin controlled by power controller
 434:Drivers/STM32L4xx_HAL_Driver/Src/stm32l4xx_hal_flash_ex.c ****   *                @arg FLASH_LVE_PIN_FORCED: LVE FLASH pin enforced to low (external SMPS used)
 435:Drivers/STM32L4xx_HAL_Driver/Src/stm32l4xx_hal_flash_ex.c ****   *
 436:Drivers/STM32L4xx_HAL_Driver/Src/stm32l4xx_hal_flash_ex.c ****   * @note   Before enforcing the LVE pin to low, the SOC should be in low voltage
 437:Drivers/STM32L4xx_HAL_Driver/Src/stm32l4xx_hal_flash_ex.c ****   *         range 2 and the voltage VDD12 should be higher than 1.08V and SMPS is ON.
 438:Drivers/STM32L4xx_HAL_Driver/Src/stm32l4xx_hal_flash_ex.c ****   *
 439:Drivers/STM32L4xx_HAL_Driver/Src/stm32l4xx_hal_flash_ex.c ****   * @retval HAL Status
 440:Drivers/STM32L4xx_HAL_Driver/Src/stm32l4xx_hal_flash_ex.c ****   */
 441:Drivers/STM32L4xx_HAL_Driver/Src/stm32l4xx_hal_flash_ex.c **** HAL_StatusTypeDef HAL_FLASHEx_ConfigLVEPin(uint32_t ConfigLVE)
 442:Drivers/STM32L4xx_HAL_Driver/Src/stm32l4xx_hal_flash_ex.c **** {
 443:Drivers/STM32L4xx_HAL_Driver/Src/stm32l4xx_hal_flash_ex.c ****   HAL_StatusTypeDef status;
 444:Drivers/STM32L4xx_HAL_Driver/Src/stm32l4xx_hal_flash_ex.c **** 
 445:Drivers/STM32L4xx_HAL_Driver/Src/stm32l4xx_hal_flash_ex.c ****   /* Process Locked */
 446:Drivers/STM32L4xx_HAL_Driver/Src/stm32l4xx_hal_flash_ex.c ****   __HAL_LOCK(&pFlash);
 447:Drivers/STM32L4xx_HAL_Driver/Src/stm32l4xx_hal_flash_ex.c **** 
 448:Drivers/STM32L4xx_HAL_Driver/Src/stm32l4xx_hal_flash_ex.c ****   /* Check the parameters */
 449:Drivers/STM32L4xx_HAL_Driver/Src/stm32l4xx_hal_flash_ex.c ****   assert_param(IS_FLASH_LVE_PIN(ConfigLVE));
 450:Drivers/STM32L4xx_HAL_Driver/Src/stm32l4xx_hal_flash_ex.c **** 
 451:Drivers/STM32L4xx_HAL_Driver/Src/stm32l4xx_hal_flash_ex.c ****   /* Wait for last operation to be completed */
 452:Drivers/STM32L4xx_HAL_Driver/Src/stm32l4xx_hal_flash_ex.c ****   status = FLASH_WaitForLastOperation((uint32_t)FLASH_TIMEOUT_VALUE);
 453:Drivers/STM32L4xx_HAL_Driver/Src/stm32l4xx_hal_flash_ex.c **** 
 454:Drivers/STM32L4xx_HAL_Driver/Src/stm32l4xx_hal_flash_ex.c ****   if (status == HAL_OK)
 455:Drivers/STM32L4xx_HAL_Driver/Src/stm32l4xx_hal_flash_ex.c ****   {
 456:Drivers/STM32L4xx_HAL_Driver/Src/stm32l4xx_hal_flash_ex.c ****     /* Check that the voltage scaling is range 2 */
 457:Drivers/STM32L4xx_HAL_Driver/Src/stm32l4xx_hal_flash_ex.c ****     if (HAL_PWREx_GetVoltageRange() == PWR_REGULATOR_VOLTAGE_SCALE2)
 458:Drivers/STM32L4xx_HAL_Driver/Src/stm32l4xx_hal_flash_ex.c ****     {
 459:Drivers/STM32L4xx_HAL_Driver/Src/stm32l4xx_hal_flash_ex.c ****       /* Configure the LVEN bit */
 460:Drivers/STM32L4xx_HAL_Driver/Src/stm32l4xx_hal_flash_ex.c ****       MODIFY_REG(FLASH->CFGR, FLASH_CFGR_LVEN, ConfigLVE);
 461:Drivers/STM32L4xx_HAL_Driver/Src/stm32l4xx_hal_flash_ex.c **** 
 462:Drivers/STM32L4xx_HAL_Driver/Src/stm32l4xx_hal_flash_ex.c ****       /* Check that the bit has been correctly configured */
 463:Drivers/STM32L4xx_HAL_Driver/Src/stm32l4xx_hal_flash_ex.c ****       if (READ_BIT(FLASH->CFGR, FLASH_CFGR_LVEN) != ConfigLVE)
 464:Drivers/STM32L4xx_HAL_Driver/Src/stm32l4xx_hal_flash_ex.c ****       {
 465:Drivers/STM32L4xx_HAL_Driver/Src/stm32l4xx_hal_flash_ex.c ****         status = HAL_ERROR;
 466:Drivers/STM32L4xx_HAL_Driver/Src/stm32l4xx_hal_flash_ex.c ****       }
 467:Drivers/STM32L4xx_HAL_Driver/Src/stm32l4xx_hal_flash_ex.c ****     }
 468:Drivers/STM32L4xx_HAL_Driver/Src/stm32l4xx_hal_flash_ex.c ****     else
 469:Drivers/STM32L4xx_HAL_Driver/Src/stm32l4xx_hal_flash_ex.c ****     {
 470:Drivers/STM32L4xx_HAL_Driver/Src/stm32l4xx_hal_flash_ex.c ****       /* Not allow to force Flash LVE pin if not in voltage range 2 */
 471:Drivers/STM32L4xx_HAL_Driver/Src/stm32l4xx_hal_flash_ex.c ****       status = HAL_ERROR;
 472:Drivers/STM32L4xx_HAL_Driver/Src/stm32l4xx_hal_flash_ex.c ****     }
 473:Drivers/STM32L4xx_HAL_Driver/Src/stm32l4xx_hal_flash_ex.c ****   }
 474:Drivers/STM32L4xx_HAL_Driver/Src/stm32l4xx_hal_flash_ex.c **** 
 475:Drivers/STM32L4xx_HAL_Driver/Src/stm32l4xx_hal_flash_ex.c ****   /* Process Unlocked */
 476:Drivers/STM32L4xx_HAL_Driver/Src/stm32l4xx_hal_flash_ex.c ****   __HAL_UNLOCK(&pFlash);
 477:Drivers/STM32L4xx_HAL_Driver/Src/stm32l4xx_hal_flash_ex.c **** 
 478:Drivers/STM32L4xx_HAL_Driver/Src/stm32l4xx_hal_flash_ex.c ****   return status;
 479:Drivers/STM32L4xx_HAL_Driver/Src/stm32l4xx_hal_flash_ex.c **** }
 480:Drivers/STM32L4xx_HAL_Driver/Src/stm32l4xx_hal_flash_ex.c **** 
 481:Drivers/STM32L4xx_HAL_Driver/Src/stm32l4xx_hal_flash_ex.c **** /**
 482:Drivers/STM32L4xx_HAL_Driver/Src/stm32l4xx_hal_flash_ex.c ****   * @}
 483:Drivers/STM32L4xx_HAL_Driver/Src/stm32l4xx_hal_flash_ex.c ****   */
 484:Drivers/STM32L4xx_HAL_Driver/Src/stm32l4xx_hal_flash_ex.c **** #endif /* FLASH_CFGR_LVEN */
 485:Drivers/STM32L4xx_HAL_Driver/Src/stm32l4xx_hal_flash_ex.c **** 
 486:Drivers/STM32L4xx_HAL_Driver/Src/stm32l4xx_hal_flash_ex.c **** /**
ARM GAS  /tmp/cc5sw4Du.s 			page 10


 487:Drivers/STM32L4xx_HAL_Driver/Src/stm32l4xx_hal_flash_ex.c ****   * @}
 488:Drivers/STM32L4xx_HAL_Driver/Src/stm32l4xx_hal_flash_ex.c ****   */
 489:Drivers/STM32L4xx_HAL_Driver/Src/stm32l4xx_hal_flash_ex.c **** 
 490:Drivers/STM32L4xx_HAL_Driver/Src/stm32l4xx_hal_flash_ex.c **** /* Private functions ---------------------------------------------------------*/
 491:Drivers/STM32L4xx_HAL_Driver/Src/stm32l4xx_hal_flash_ex.c **** 
 492:Drivers/STM32L4xx_HAL_Driver/Src/stm32l4xx_hal_flash_ex.c **** /** @addtogroup FLASHEx_Private_Functions
 493:Drivers/STM32L4xx_HAL_Driver/Src/stm32l4xx_hal_flash_ex.c ****   * @{
 494:Drivers/STM32L4xx_HAL_Driver/Src/stm32l4xx_hal_flash_ex.c ****   */
 495:Drivers/STM32L4xx_HAL_Driver/Src/stm32l4xx_hal_flash_ex.c **** /**
 496:Drivers/STM32L4xx_HAL_Driver/Src/stm32l4xx_hal_flash_ex.c ****   * @brief  Mass erase of FLASH memory.
 497:Drivers/STM32L4xx_HAL_Driver/Src/stm32l4xx_hal_flash_ex.c ****   * @param  Banks Banks to be erased
 498:Drivers/STM32L4xx_HAL_Driver/Src/stm32l4xx_hal_flash_ex.c ****   *          This parameter can be one of the following values:
 499:Drivers/STM32L4xx_HAL_Driver/Src/stm32l4xx_hal_flash_ex.c ****   *            @arg FLASH_BANK_1: Bank1 to be erased
 500:Drivers/STM32L4xx_HAL_Driver/Src/stm32l4xx_hal_flash_ex.c ****   *            @arg FLASH_BANK_2: Bank2 to be erased
 501:Drivers/STM32L4xx_HAL_Driver/Src/stm32l4xx_hal_flash_ex.c ****   *            @arg FLASH_BANK_BOTH: Bank1 and Bank2 to be erased
 502:Drivers/STM32L4xx_HAL_Driver/Src/stm32l4xx_hal_flash_ex.c ****   * @retval None
 503:Drivers/STM32L4xx_HAL_Driver/Src/stm32l4xx_hal_flash_ex.c ****   */
 504:Drivers/STM32L4xx_HAL_Driver/Src/stm32l4xx_hal_flash_ex.c **** static void FLASH_MassErase(uint32_t Banks)
 505:Drivers/STM32L4xx_HAL_Driver/Src/stm32l4xx_hal_flash_ex.c **** {
  29              		.loc 1 505 1 view -0
  30              		.cfi_startproc
  31              		@ args = 0, pretend = 0, frame = 0
  32              		@ frame_needed = 0, uses_anonymous_args = 0
  33              		@ link register save eliminated.
 506:Drivers/STM32L4xx_HAL_Driver/Src/stm32l4xx_hal_flash_ex.c **** #if defined (STM32L4P5xx) || defined (STM32L4Q5xx) || defined (STM32L4R5xx) || defined (STM32L4R7xx
 507:Drivers/STM32L4xx_HAL_Driver/Src/stm32l4xx_hal_flash_ex.c ****   if (READ_BIT(FLASH->OPTR, FLASH_OPTR_DBANK) != 0U)
 508:Drivers/STM32L4xx_HAL_Driver/Src/stm32l4xx_hal_flash_ex.c **** #endif
 509:Drivers/STM32L4xx_HAL_Driver/Src/stm32l4xx_hal_flash_ex.c ****   {
 510:Drivers/STM32L4xx_HAL_Driver/Src/stm32l4xx_hal_flash_ex.c ****     /* Check the parameters */
 511:Drivers/STM32L4xx_HAL_Driver/Src/stm32l4xx_hal_flash_ex.c ****     assert_param(IS_FLASH_BANK(Banks));
  34              		.loc 1 511 5 view .LVU1
 512:Drivers/STM32L4xx_HAL_Driver/Src/stm32l4xx_hal_flash_ex.c **** 
 513:Drivers/STM32L4xx_HAL_Driver/Src/stm32l4xx_hal_flash_ex.c ****     /* Set the Mass Erase Bit for the bank 1 if requested */
 514:Drivers/STM32L4xx_HAL_Driver/Src/stm32l4xx_hal_flash_ex.c ****     if((Banks & FLASH_BANK_1) != 0U)
  35              		.loc 1 514 5 view .LVU2
  36              		.loc 1 514 7 is_stmt 0 view .LVU3
  37 0000 10F0010F 		tst	r0, #1
  38 0004 04D0     		beq	.L2
 515:Drivers/STM32L4xx_HAL_Driver/Src/stm32l4xx_hal_flash_ex.c ****     {
 516:Drivers/STM32L4xx_HAL_Driver/Src/stm32l4xx_hal_flash_ex.c ****       SET_BIT(FLASH->CR, FLASH_CR_MER1);
  39              		.loc 1 516 7 is_stmt 1 view .LVU4
  40 0006 094A     		ldr	r2, .L4
  41 0008 5369     		ldr	r3, [r2, #20]
  42 000a 43F00403 		orr	r3, r3, #4
  43 000e 5361     		str	r3, [r2, #20]
  44              	.L2:
 517:Drivers/STM32L4xx_HAL_Driver/Src/stm32l4xx_hal_flash_ex.c ****     }
 518:Drivers/STM32L4xx_HAL_Driver/Src/stm32l4xx_hal_flash_ex.c **** 
 519:Drivers/STM32L4xx_HAL_Driver/Src/stm32l4xx_hal_flash_ex.c **** #if defined (STM32L471xx) || defined (STM32L475xx) || defined (STM32L476xx) || defined (STM32L485xx
 520:Drivers/STM32L4xx_HAL_Driver/Src/stm32l4xx_hal_flash_ex.c ****     defined (STM32L496xx) || defined (STM32L4A6xx) || \
 521:Drivers/STM32L4xx_HAL_Driver/Src/stm32l4xx_hal_flash_ex.c ****     defined (STM32L4P5xx) || defined (STM32L4Q5xx) || \
 522:Drivers/STM32L4xx_HAL_Driver/Src/stm32l4xx_hal_flash_ex.c ****     defined (STM32L4R5xx) || defined (STM32L4R7xx) || defined (STM32L4R9xx) || defined (STM32L4S5xx
 523:Drivers/STM32L4xx_HAL_Driver/Src/stm32l4xx_hal_flash_ex.c ****     /* Set the Mass Erase Bit for the bank 2 if requested */
 524:Drivers/STM32L4xx_HAL_Driver/Src/stm32l4xx_hal_flash_ex.c ****     if((Banks & FLASH_BANK_2) != 0U)
  45              		.loc 1 524 5 view .LVU5
  46              		.loc 1 524 7 is_stmt 0 view .LVU6
  47 0010 10F0020F 		tst	r0, #2
ARM GAS  /tmp/cc5sw4Du.s 			page 11


  48 0014 04D0     		beq	.L3
 525:Drivers/STM32L4xx_HAL_Driver/Src/stm32l4xx_hal_flash_ex.c ****     {
 526:Drivers/STM32L4xx_HAL_Driver/Src/stm32l4xx_hal_flash_ex.c ****       SET_BIT(FLASH->CR, FLASH_CR_MER2);
  49              		.loc 1 526 7 is_stmt 1 view .LVU7
  50 0016 054A     		ldr	r2, .L4
  51 0018 5369     		ldr	r3, [r2, #20]
  52 001a 43F40043 		orr	r3, r3, #32768
  53 001e 5361     		str	r3, [r2, #20]
  54              	.L3:
 527:Drivers/STM32L4xx_HAL_Driver/Src/stm32l4xx_hal_flash_ex.c ****     }
 528:Drivers/STM32L4xx_HAL_Driver/Src/stm32l4xx_hal_flash_ex.c **** #endif
 529:Drivers/STM32L4xx_HAL_Driver/Src/stm32l4xx_hal_flash_ex.c ****   }
 530:Drivers/STM32L4xx_HAL_Driver/Src/stm32l4xx_hal_flash_ex.c **** #if defined (STM32L4P5xx) || defined (STM32L4Q5xx) || defined (STM32L4R5xx) || defined (STM32L4R7xx
 531:Drivers/STM32L4xx_HAL_Driver/Src/stm32l4xx_hal_flash_ex.c ****   else
 532:Drivers/STM32L4xx_HAL_Driver/Src/stm32l4xx_hal_flash_ex.c ****   {
 533:Drivers/STM32L4xx_HAL_Driver/Src/stm32l4xx_hal_flash_ex.c ****     SET_BIT(FLASH->CR, (FLASH_CR_MER1 | FLASH_CR_MER2));
 534:Drivers/STM32L4xx_HAL_Driver/Src/stm32l4xx_hal_flash_ex.c ****   }
 535:Drivers/STM32L4xx_HAL_Driver/Src/stm32l4xx_hal_flash_ex.c **** #endif
 536:Drivers/STM32L4xx_HAL_Driver/Src/stm32l4xx_hal_flash_ex.c **** 
 537:Drivers/STM32L4xx_HAL_Driver/Src/stm32l4xx_hal_flash_ex.c ****   /* Proceed to erase all sectors */
 538:Drivers/STM32L4xx_HAL_Driver/Src/stm32l4xx_hal_flash_ex.c ****   SET_BIT(FLASH->CR, FLASH_CR_STRT);
  55              		.loc 1 538 3 view .LVU8
  56 0020 024A     		ldr	r2, .L4
  57 0022 5369     		ldr	r3, [r2, #20]
  58 0024 43F48033 		orr	r3, r3, #65536
  59 0028 5361     		str	r3, [r2, #20]
 539:Drivers/STM32L4xx_HAL_Driver/Src/stm32l4xx_hal_flash_ex.c **** }
  60              		.loc 1 539 1 is_stmt 0 view .LVU9
  61 002a 7047     		bx	lr
  62              	.L5:
  63              		.align	2
  64              	.L4:
  65 002c 00200240 		.word	1073881088
  66              		.cfi_endproc
  67              	.LFE321:
  69              		.section	.text.FLASH_OB_GetWRP,"ax",%progbits
  70              		.align	1
  71              		.syntax unified
  72              		.thumb
  73              		.thumb_func
  74              		.fpu fpv4-sp-d16
  76              	FLASH_OB_GetWRP:
  77              	.LVL1:
  78              	.LFB328:
 540:Drivers/STM32L4xx_HAL_Driver/Src/stm32l4xx_hal_flash_ex.c **** 
 541:Drivers/STM32L4xx_HAL_Driver/Src/stm32l4xx_hal_flash_ex.c **** /**
 542:Drivers/STM32L4xx_HAL_Driver/Src/stm32l4xx_hal_flash_ex.c ****   * @brief  Erase the specified FLASH memory page.
 543:Drivers/STM32L4xx_HAL_Driver/Src/stm32l4xx_hal_flash_ex.c ****   * @param  Page FLASH page to erase
 544:Drivers/STM32L4xx_HAL_Driver/Src/stm32l4xx_hal_flash_ex.c ****   *         This parameter must be a value between 0 and (max number of pages in the bank - 1)
 545:Drivers/STM32L4xx_HAL_Driver/Src/stm32l4xx_hal_flash_ex.c ****   * @param  Banks Bank(s) where the page will be erased
 546:Drivers/STM32L4xx_HAL_Driver/Src/stm32l4xx_hal_flash_ex.c ****   *          This parameter can be one of the following values:
 547:Drivers/STM32L4xx_HAL_Driver/Src/stm32l4xx_hal_flash_ex.c ****   *            @arg FLASH_BANK_1: Page in bank 1 to be erased
 548:Drivers/STM32L4xx_HAL_Driver/Src/stm32l4xx_hal_flash_ex.c ****   *            @arg FLASH_BANK_2: Page in bank 2 to be erased
 549:Drivers/STM32L4xx_HAL_Driver/Src/stm32l4xx_hal_flash_ex.c ****   * @retval None
 550:Drivers/STM32L4xx_HAL_Driver/Src/stm32l4xx_hal_flash_ex.c ****   */
 551:Drivers/STM32L4xx_HAL_Driver/Src/stm32l4xx_hal_flash_ex.c **** void FLASH_PageErase(uint32_t Page, uint32_t Banks)
 552:Drivers/STM32L4xx_HAL_Driver/Src/stm32l4xx_hal_flash_ex.c **** {
ARM GAS  /tmp/cc5sw4Du.s 			page 12


 553:Drivers/STM32L4xx_HAL_Driver/Src/stm32l4xx_hal_flash_ex.c ****   /* Check the parameters */
 554:Drivers/STM32L4xx_HAL_Driver/Src/stm32l4xx_hal_flash_ex.c ****   assert_param(IS_FLASH_PAGE(Page));
 555:Drivers/STM32L4xx_HAL_Driver/Src/stm32l4xx_hal_flash_ex.c **** 
 556:Drivers/STM32L4xx_HAL_Driver/Src/stm32l4xx_hal_flash_ex.c **** #if defined (STM32L471xx) || defined (STM32L475xx) || defined (STM32L476xx) || defined (STM32L485xx
 557:Drivers/STM32L4xx_HAL_Driver/Src/stm32l4xx_hal_flash_ex.c ****     defined (STM32L496xx) || defined (STM32L4A6xx) || \
 558:Drivers/STM32L4xx_HAL_Driver/Src/stm32l4xx_hal_flash_ex.c ****     defined (STM32L4P5xx) || defined (STM32L4Q5xx) || \
 559:Drivers/STM32L4xx_HAL_Driver/Src/stm32l4xx_hal_flash_ex.c ****     defined (STM32L4R5xx) || defined (STM32L4R7xx) || defined (STM32L4R9xx) || defined (STM32L4S5xx
 560:Drivers/STM32L4xx_HAL_Driver/Src/stm32l4xx_hal_flash_ex.c **** #if defined (STM32L4P5xx) || defined (STM32L4Q5xx) || defined (STM32L4R5xx) || defined (STM32L4R7xx
 561:Drivers/STM32L4xx_HAL_Driver/Src/stm32l4xx_hal_flash_ex.c ****   if(READ_BIT(FLASH->OPTR, FLASH_OPTR_DBANK) == 0U)
 562:Drivers/STM32L4xx_HAL_Driver/Src/stm32l4xx_hal_flash_ex.c ****   {
 563:Drivers/STM32L4xx_HAL_Driver/Src/stm32l4xx_hal_flash_ex.c ****     CLEAR_BIT(FLASH->CR, FLASH_CR_BKER);
 564:Drivers/STM32L4xx_HAL_Driver/Src/stm32l4xx_hal_flash_ex.c ****   }
 565:Drivers/STM32L4xx_HAL_Driver/Src/stm32l4xx_hal_flash_ex.c ****   else
 566:Drivers/STM32L4xx_HAL_Driver/Src/stm32l4xx_hal_flash_ex.c **** #endif
 567:Drivers/STM32L4xx_HAL_Driver/Src/stm32l4xx_hal_flash_ex.c ****   {
 568:Drivers/STM32L4xx_HAL_Driver/Src/stm32l4xx_hal_flash_ex.c ****     assert_param(IS_FLASH_BANK_EXCLUSIVE(Banks));
 569:Drivers/STM32L4xx_HAL_Driver/Src/stm32l4xx_hal_flash_ex.c **** 
 570:Drivers/STM32L4xx_HAL_Driver/Src/stm32l4xx_hal_flash_ex.c ****     if((Banks & FLASH_BANK_1) != 0U)
 571:Drivers/STM32L4xx_HAL_Driver/Src/stm32l4xx_hal_flash_ex.c ****     {
 572:Drivers/STM32L4xx_HAL_Driver/Src/stm32l4xx_hal_flash_ex.c ****       CLEAR_BIT(FLASH->CR, FLASH_CR_BKER);
 573:Drivers/STM32L4xx_HAL_Driver/Src/stm32l4xx_hal_flash_ex.c ****     }
 574:Drivers/STM32L4xx_HAL_Driver/Src/stm32l4xx_hal_flash_ex.c ****     else
 575:Drivers/STM32L4xx_HAL_Driver/Src/stm32l4xx_hal_flash_ex.c ****     {
 576:Drivers/STM32L4xx_HAL_Driver/Src/stm32l4xx_hal_flash_ex.c ****       SET_BIT(FLASH->CR, FLASH_CR_BKER);
 577:Drivers/STM32L4xx_HAL_Driver/Src/stm32l4xx_hal_flash_ex.c ****     }
 578:Drivers/STM32L4xx_HAL_Driver/Src/stm32l4xx_hal_flash_ex.c ****   }
 579:Drivers/STM32L4xx_HAL_Driver/Src/stm32l4xx_hal_flash_ex.c **** #else
 580:Drivers/STM32L4xx_HAL_Driver/Src/stm32l4xx_hal_flash_ex.c ****   /* Prevent unused argument(s) compilation warning */
 581:Drivers/STM32L4xx_HAL_Driver/Src/stm32l4xx_hal_flash_ex.c ****   UNUSED(Banks);
 582:Drivers/STM32L4xx_HAL_Driver/Src/stm32l4xx_hal_flash_ex.c **** #endif
 583:Drivers/STM32L4xx_HAL_Driver/Src/stm32l4xx_hal_flash_ex.c **** 
 584:Drivers/STM32L4xx_HAL_Driver/Src/stm32l4xx_hal_flash_ex.c ****   /* Proceed to erase the page */
 585:Drivers/STM32L4xx_HAL_Driver/Src/stm32l4xx_hal_flash_ex.c ****   MODIFY_REG(FLASH->CR, FLASH_CR_PNB, ((Page & 0xFFU) << FLASH_CR_PNB_Pos));
 586:Drivers/STM32L4xx_HAL_Driver/Src/stm32l4xx_hal_flash_ex.c ****   SET_BIT(FLASH->CR, FLASH_CR_PER);
 587:Drivers/STM32L4xx_HAL_Driver/Src/stm32l4xx_hal_flash_ex.c ****   SET_BIT(FLASH->CR, FLASH_CR_STRT);
 588:Drivers/STM32L4xx_HAL_Driver/Src/stm32l4xx_hal_flash_ex.c **** }
 589:Drivers/STM32L4xx_HAL_Driver/Src/stm32l4xx_hal_flash_ex.c **** 
 590:Drivers/STM32L4xx_HAL_Driver/Src/stm32l4xx_hal_flash_ex.c **** /**
 591:Drivers/STM32L4xx_HAL_Driver/Src/stm32l4xx_hal_flash_ex.c ****   * @brief  Flush the instruction and data caches.
 592:Drivers/STM32L4xx_HAL_Driver/Src/stm32l4xx_hal_flash_ex.c ****   * @retval None
 593:Drivers/STM32L4xx_HAL_Driver/Src/stm32l4xx_hal_flash_ex.c ****   */
 594:Drivers/STM32L4xx_HAL_Driver/Src/stm32l4xx_hal_flash_ex.c **** void FLASH_FlushCaches(void)
 595:Drivers/STM32L4xx_HAL_Driver/Src/stm32l4xx_hal_flash_ex.c **** {
 596:Drivers/STM32L4xx_HAL_Driver/Src/stm32l4xx_hal_flash_ex.c ****   FLASH_CacheTypeDef cache = pFlash.CacheToReactivate;
 597:Drivers/STM32L4xx_HAL_Driver/Src/stm32l4xx_hal_flash_ex.c **** 
 598:Drivers/STM32L4xx_HAL_Driver/Src/stm32l4xx_hal_flash_ex.c ****   /* Flush instruction cache  */
 599:Drivers/STM32L4xx_HAL_Driver/Src/stm32l4xx_hal_flash_ex.c ****   if((cache == FLASH_CACHE_ICACHE_ENABLED) ||
 600:Drivers/STM32L4xx_HAL_Driver/Src/stm32l4xx_hal_flash_ex.c ****      (cache == FLASH_CACHE_ICACHE_DCACHE_ENABLED))
 601:Drivers/STM32L4xx_HAL_Driver/Src/stm32l4xx_hal_flash_ex.c ****   {
 602:Drivers/STM32L4xx_HAL_Driver/Src/stm32l4xx_hal_flash_ex.c ****     /* Disable instruction cache */
 603:Drivers/STM32L4xx_HAL_Driver/Src/stm32l4xx_hal_flash_ex.c ****     __HAL_FLASH_INSTRUCTION_CACHE_DISABLE();
 604:Drivers/STM32L4xx_HAL_Driver/Src/stm32l4xx_hal_flash_ex.c ****     /* Reset instruction cache */
 605:Drivers/STM32L4xx_HAL_Driver/Src/stm32l4xx_hal_flash_ex.c ****     __HAL_FLASH_INSTRUCTION_CACHE_RESET();
 606:Drivers/STM32L4xx_HAL_Driver/Src/stm32l4xx_hal_flash_ex.c ****     /* Enable instruction cache */
 607:Drivers/STM32L4xx_HAL_Driver/Src/stm32l4xx_hal_flash_ex.c ****     __HAL_FLASH_INSTRUCTION_CACHE_ENABLE();
 608:Drivers/STM32L4xx_HAL_Driver/Src/stm32l4xx_hal_flash_ex.c ****   }
 609:Drivers/STM32L4xx_HAL_Driver/Src/stm32l4xx_hal_flash_ex.c **** 
ARM GAS  /tmp/cc5sw4Du.s 			page 13


 610:Drivers/STM32L4xx_HAL_Driver/Src/stm32l4xx_hal_flash_ex.c ****   /* Flush data cache */
 611:Drivers/STM32L4xx_HAL_Driver/Src/stm32l4xx_hal_flash_ex.c ****   if((cache == FLASH_CACHE_DCACHE_ENABLED) ||
 612:Drivers/STM32L4xx_HAL_Driver/Src/stm32l4xx_hal_flash_ex.c ****      (cache == FLASH_CACHE_ICACHE_DCACHE_ENABLED))
 613:Drivers/STM32L4xx_HAL_Driver/Src/stm32l4xx_hal_flash_ex.c ****   {
 614:Drivers/STM32L4xx_HAL_Driver/Src/stm32l4xx_hal_flash_ex.c ****     /* Reset data cache */
 615:Drivers/STM32L4xx_HAL_Driver/Src/stm32l4xx_hal_flash_ex.c ****     __HAL_FLASH_DATA_CACHE_RESET();
 616:Drivers/STM32L4xx_HAL_Driver/Src/stm32l4xx_hal_flash_ex.c ****     /* Enable data cache */
 617:Drivers/STM32L4xx_HAL_Driver/Src/stm32l4xx_hal_flash_ex.c ****     __HAL_FLASH_DATA_CACHE_ENABLE();
 618:Drivers/STM32L4xx_HAL_Driver/Src/stm32l4xx_hal_flash_ex.c ****   }
 619:Drivers/STM32L4xx_HAL_Driver/Src/stm32l4xx_hal_flash_ex.c **** 
 620:Drivers/STM32L4xx_HAL_Driver/Src/stm32l4xx_hal_flash_ex.c ****   /* Reset internal variable */
 621:Drivers/STM32L4xx_HAL_Driver/Src/stm32l4xx_hal_flash_ex.c ****   pFlash.CacheToReactivate = FLASH_CACHE_DISABLED;
 622:Drivers/STM32L4xx_HAL_Driver/Src/stm32l4xx_hal_flash_ex.c **** }
 623:Drivers/STM32L4xx_HAL_Driver/Src/stm32l4xx_hal_flash_ex.c **** 
 624:Drivers/STM32L4xx_HAL_Driver/Src/stm32l4xx_hal_flash_ex.c **** /**
 625:Drivers/STM32L4xx_HAL_Driver/Src/stm32l4xx_hal_flash_ex.c ****   * @brief  Configure the write protection of the desired pages.
 626:Drivers/STM32L4xx_HAL_Driver/Src/stm32l4xx_hal_flash_ex.c ****   *
 627:Drivers/STM32L4xx_HAL_Driver/Src/stm32l4xx_hal_flash_ex.c ****   * @note   When the memory read protection level is selected (RDP level = 1),
 628:Drivers/STM32L4xx_HAL_Driver/Src/stm32l4xx_hal_flash_ex.c ****   *         it is not possible to program or erase Flash memory if the CPU debug
 629:Drivers/STM32L4xx_HAL_Driver/Src/stm32l4xx_hal_flash_ex.c ****   *         features are connected (JTAG or single wire) or boot code is being
 630:Drivers/STM32L4xx_HAL_Driver/Src/stm32l4xx_hal_flash_ex.c ****   *         executed from RAM or System flash, even if WRP is not activated.
 631:Drivers/STM32L4xx_HAL_Driver/Src/stm32l4xx_hal_flash_ex.c ****   * @note   To configure the WRP options, the option lock bit OPTLOCK must be
 632:Drivers/STM32L4xx_HAL_Driver/Src/stm32l4xx_hal_flash_ex.c ****   *         cleared with the call of the HAL_FLASH_OB_Unlock() function.
 633:Drivers/STM32L4xx_HAL_Driver/Src/stm32l4xx_hal_flash_ex.c ****   * @note   To validate the WRP options, the option bytes must be reloaded
 634:Drivers/STM32L4xx_HAL_Driver/Src/stm32l4xx_hal_flash_ex.c ****   *         through the call of the HAL_FLASH_OB_Launch() function.
 635:Drivers/STM32L4xx_HAL_Driver/Src/stm32l4xx_hal_flash_ex.c ****   *
 636:Drivers/STM32L4xx_HAL_Driver/Src/stm32l4xx_hal_flash_ex.c ****   * @param  WRPArea specifies the area to be configured.
 637:Drivers/STM32L4xx_HAL_Driver/Src/stm32l4xx_hal_flash_ex.c ****   *          This parameter can be one of the following values:
 638:Drivers/STM32L4xx_HAL_Driver/Src/stm32l4xx_hal_flash_ex.c ****   *            @arg OB_WRPAREA_BANK1_AREAA: Flash Bank 1 Area A
 639:Drivers/STM32L4xx_HAL_Driver/Src/stm32l4xx_hal_flash_ex.c ****   *            @arg OB_WRPAREA_BANK1_AREAB: Flash Bank 1 Area B
 640:Drivers/STM32L4xx_HAL_Driver/Src/stm32l4xx_hal_flash_ex.c ****   *            @arg OB_WRPAREA_BANK2_AREAA: Flash Bank 2 Area A  (don't apply for STM32L43x/STM32L4
 641:Drivers/STM32L4xx_HAL_Driver/Src/stm32l4xx_hal_flash_ex.c ****   *            @arg OB_WRPAREA_BANK2_AREAB: Flash Bank 2 Area B  (don't apply for STM32L43x/STM32L4
 642:Drivers/STM32L4xx_HAL_Driver/Src/stm32l4xx_hal_flash_ex.c ****   *
 643:Drivers/STM32L4xx_HAL_Driver/Src/stm32l4xx_hal_flash_ex.c ****   * @param  WRPStartOffset specifies the start page of the write protected area
 644:Drivers/STM32L4xx_HAL_Driver/Src/stm32l4xx_hal_flash_ex.c ****   *          This parameter can be page number between 0 and (max number of pages in the bank - 1)
 645:Drivers/STM32L4xx_HAL_Driver/Src/stm32l4xx_hal_flash_ex.c ****   *
 646:Drivers/STM32L4xx_HAL_Driver/Src/stm32l4xx_hal_flash_ex.c ****   * @param  WRDPEndOffset specifies the end page of the write protected area
 647:Drivers/STM32L4xx_HAL_Driver/Src/stm32l4xx_hal_flash_ex.c ****   *          This parameter can be page number between WRPStartOffset and (max number of pages in t
 648:Drivers/STM32L4xx_HAL_Driver/Src/stm32l4xx_hal_flash_ex.c ****   *
 649:Drivers/STM32L4xx_HAL_Driver/Src/stm32l4xx_hal_flash_ex.c ****   * @retval HAL Status
 650:Drivers/STM32L4xx_HAL_Driver/Src/stm32l4xx_hal_flash_ex.c ****   */
 651:Drivers/STM32L4xx_HAL_Driver/Src/stm32l4xx_hal_flash_ex.c **** static HAL_StatusTypeDef FLASH_OB_WRPConfig(uint32_t WRPArea, uint32_t WRPStartOffset, uint32_t WRD
 652:Drivers/STM32L4xx_HAL_Driver/Src/stm32l4xx_hal_flash_ex.c **** {
 653:Drivers/STM32L4xx_HAL_Driver/Src/stm32l4xx_hal_flash_ex.c ****   HAL_StatusTypeDef status;
 654:Drivers/STM32L4xx_HAL_Driver/Src/stm32l4xx_hal_flash_ex.c **** 
 655:Drivers/STM32L4xx_HAL_Driver/Src/stm32l4xx_hal_flash_ex.c ****   /* Check the parameters */
 656:Drivers/STM32L4xx_HAL_Driver/Src/stm32l4xx_hal_flash_ex.c ****   assert_param(IS_OB_WRPAREA(WRPArea));
 657:Drivers/STM32L4xx_HAL_Driver/Src/stm32l4xx_hal_flash_ex.c ****   assert_param(IS_FLASH_PAGE(WRPStartOffset));
 658:Drivers/STM32L4xx_HAL_Driver/Src/stm32l4xx_hal_flash_ex.c ****   assert_param(IS_FLASH_PAGE(WRDPEndOffset));
 659:Drivers/STM32L4xx_HAL_Driver/Src/stm32l4xx_hal_flash_ex.c **** 
 660:Drivers/STM32L4xx_HAL_Driver/Src/stm32l4xx_hal_flash_ex.c ****   /* Wait for last operation to be completed */
 661:Drivers/STM32L4xx_HAL_Driver/Src/stm32l4xx_hal_flash_ex.c ****   status = FLASH_WaitForLastOperation((uint32_t)FLASH_TIMEOUT_VALUE);
 662:Drivers/STM32L4xx_HAL_Driver/Src/stm32l4xx_hal_flash_ex.c **** 
 663:Drivers/STM32L4xx_HAL_Driver/Src/stm32l4xx_hal_flash_ex.c ****   if(status == HAL_OK)
 664:Drivers/STM32L4xx_HAL_Driver/Src/stm32l4xx_hal_flash_ex.c ****   {
 665:Drivers/STM32L4xx_HAL_Driver/Src/stm32l4xx_hal_flash_ex.c ****     /* Configure the write protected area */
 666:Drivers/STM32L4xx_HAL_Driver/Src/stm32l4xx_hal_flash_ex.c ****     if(WRPArea == OB_WRPAREA_BANK1_AREAA)
ARM GAS  /tmp/cc5sw4Du.s 			page 14


 667:Drivers/STM32L4xx_HAL_Driver/Src/stm32l4xx_hal_flash_ex.c ****     {
 668:Drivers/STM32L4xx_HAL_Driver/Src/stm32l4xx_hal_flash_ex.c ****       MODIFY_REG(FLASH->WRP1AR, (FLASH_WRP1AR_WRP1A_STRT | FLASH_WRP1AR_WRP1A_END),
 669:Drivers/STM32L4xx_HAL_Driver/Src/stm32l4xx_hal_flash_ex.c ****                  (WRPStartOffset | (WRDPEndOffset << 16)));
 670:Drivers/STM32L4xx_HAL_Driver/Src/stm32l4xx_hal_flash_ex.c ****     }
 671:Drivers/STM32L4xx_HAL_Driver/Src/stm32l4xx_hal_flash_ex.c ****     else if(WRPArea == OB_WRPAREA_BANK1_AREAB)
 672:Drivers/STM32L4xx_HAL_Driver/Src/stm32l4xx_hal_flash_ex.c ****     {
 673:Drivers/STM32L4xx_HAL_Driver/Src/stm32l4xx_hal_flash_ex.c ****       MODIFY_REG(FLASH->WRP1BR, (FLASH_WRP1BR_WRP1B_STRT | FLASH_WRP1BR_WRP1B_END),
 674:Drivers/STM32L4xx_HAL_Driver/Src/stm32l4xx_hal_flash_ex.c ****                  (WRPStartOffset | (WRDPEndOffset << 16)));
 675:Drivers/STM32L4xx_HAL_Driver/Src/stm32l4xx_hal_flash_ex.c ****     }
 676:Drivers/STM32L4xx_HAL_Driver/Src/stm32l4xx_hal_flash_ex.c **** #if defined (STM32L471xx) || defined (STM32L475xx) || defined (STM32L476xx) || defined (STM32L485xx
 677:Drivers/STM32L4xx_HAL_Driver/Src/stm32l4xx_hal_flash_ex.c ****     defined (STM32L496xx) || defined (STM32L4A6xx) || \
 678:Drivers/STM32L4xx_HAL_Driver/Src/stm32l4xx_hal_flash_ex.c ****     defined (STM32L4P5xx) || defined (STM32L4Q5xx) || \
 679:Drivers/STM32L4xx_HAL_Driver/Src/stm32l4xx_hal_flash_ex.c ****     defined (STM32L4R5xx) || defined (STM32L4R7xx) || defined (STM32L4R9xx) || defined (STM32L4S5xx
 680:Drivers/STM32L4xx_HAL_Driver/Src/stm32l4xx_hal_flash_ex.c ****     else if(WRPArea == OB_WRPAREA_BANK2_AREAA)
 681:Drivers/STM32L4xx_HAL_Driver/Src/stm32l4xx_hal_flash_ex.c ****     {
 682:Drivers/STM32L4xx_HAL_Driver/Src/stm32l4xx_hal_flash_ex.c ****       MODIFY_REG(FLASH->WRP2AR, (FLASH_WRP2AR_WRP2A_STRT | FLASH_WRP2AR_WRP2A_END),
 683:Drivers/STM32L4xx_HAL_Driver/Src/stm32l4xx_hal_flash_ex.c ****                  (WRPStartOffset | (WRDPEndOffset << 16)));
 684:Drivers/STM32L4xx_HAL_Driver/Src/stm32l4xx_hal_flash_ex.c ****     }
 685:Drivers/STM32L4xx_HAL_Driver/Src/stm32l4xx_hal_flash_ex.c ****     else if(WRPArea == OB_WRPAREA_BANK2_AREAB)
 686:Drivers/STM32L4xx_HAL_Driver/Src/stm32l4xx_hal_flash_ex.c ****     {
 687:Drivers/STM32L4xx_HAL_Driver/Src/stm32l4xx_hal_flash_ex.c ****       MODIFY_REG(FLASH->WRP2BR, (FLASH_WRP2BR_WRP2B_STRT | FLASH_WRP2BR_WRP2B_END),
 688:Drivers/STM32L4xx_HAL_Driver/Src/stm32l4xx_hal_flash_ex.c ****                  (WRPStartOffset | (WRDPEndOffset << 16)));
 689:Drivers/STM32L4xx_HAL_Driver/Src/stm32l4xx_hal_flash_ex.c ****     }
 690:Drivers/STM32L4xx_HAL_Driver/Src/stm32l4xx_hal_flash_ex.c **** #endif
 691:Drivers/STM32L4xx_HAL_Driver/Src/stm32l4xx_hal_flash_ex.c ****     else
 692:Drivers/STM32L4xx_HAL_Driver/Src/stm32l4xx_hal_flash_ex.c ****     {
 693:Drivers/STM32L4xx_HAL_Driver/Src/stm32l4xx_hal_flash_ex.c ****       /* Nothing to do */
 694:Drivers/STM32L4xx_HAL_Driver/Src/stm32l4xx_hal_flash_ex.c ****     }
 695:Drivers/STM32L4xx_HAL_Driver/Src/stm32l4xx_hal_flash_ex.c **** 
 696:Drivers/STM32L4xx_HAL_Driver/Src/stm32l4xx_hal_flash_ex.c ****     /* Set OPTSTRT Bit */
 697:Drivers/STM32L4xx_HAL_Driver/Src/stm32l4xx_hal_flash_ex.c ****     SET_BIT(FLASH->CR, FLASH_CR_OPTSTRT);
 698:Drivers/STM32L4xx_HAL_Driver/Src/stm32l4xx_hal_flash_ex.c **** 
 699:Drivers/STM32L4xx_HAL_Driver/Src/stm32l4xx_hal_flash_ex.c ****     /* Wait for last operation to be completed */
 700:Drivers/STM32L4xx_HAL_Driver/Src/stm32l4xx_hal_flash_ex.c ****     status = FLASH_WaitForLastOperation((uint32_t)FLASH_TIMEOUT_VALUE);
 701:Drivers/STM32L4xx_HAL_Driver/Src/stm32l4xx_hal_flash_ex.c **** 
 702:Drivers/STM32L4xx_HAL_Driver/Src/stm32l4xx_hal_flash_ex.c ****     /* If the option byte program operation is completed, disable the OPTSTRT Bit */
 703:Drivers/STM32L4xx_HAL_Driver/Src/stm32l4xx_hal_flash_ex.c ****     CLEAR_BIT(FLASH->CR, FLASH_CR_OPTSTRT);
 704:Drivers/STM32L4xx_HAL_Driver/Src/stm32l4xx_hal_flash_ex.c ****   }
 705:Drivers/STM32L4xx_HAL_Driver/Src/stm32l4xx_hal_flash_ex.c **** 
 706:Drivers/STM32L4xx_HAL_Driver/Src/stm32l4xx_hal_flash_ex.c ****   return status;
 707:Drivers/STM32L4xx_HAL_Driver/Src/stm32l4xx_hal_flash_ex.c **** }
 708:Drivers/STM32L4xx_HAL_Driver/Src/stm32l4xx_hal_flash_ex.c **** 
 709:Drivers/STM32L4xx_HAL_Driver/Src/stm32l4xx_hal_flash_ex.c **** /**
 710:Drivers/STM32L4xx_HAL_Driver/Src/stm32l4xx_hal_flash_ex.c ****   * @brief  Set the read protection level.
 711:Drivers/STM32L4xx_HAL_Driver/Src/stm32l4xx_hal_flash_ex.c ****   *
 712:Drivers/STM32L4xx_HAL_Driver/Src/stm32l4xx_hal_flash_ex.c ****   * @note   To configure the RDP level, the option lock bit OPTLOCK must be
 713:Drivers/STM32L4xx_HAL_Driver/Src/stm32l4xx_hal_flash_ex.c ****   *         cleared with the call of the HAL_FLASH_OB_Unlock() function.
 714:Drivers/STM32L4xx_HAL_Driver/Src/stm32l4xx_hal_flash_ex.c ****   * @note   To validate the RDP level, the option bytes must be reloaded
 715:Drivers/STM32L4xx_HAL_Driver/Src/stm32l4xx_hal_flash_ex.c ****   *         through the call of the HAL_FLASH_OB_Launch() function.
 716:Drivers/STM32L4xx_HAL_Driver/Src/stm32l4xx_hal_flash_ex.c ****   * @note   !!! Warning : When enabling OB_RDP level 2 it's no more possible
 717:Drivers/STM32L4xx_HAL_Driver/Src/stm32l4xx_hal_flash_ex.c ****   *         to go back to level 1 or 0 !!!
 718:Drivers/STM32L4xx_HAL_Driver/Src/stm32l4xx_hal_flash_ex.c ****   *
 719:Drivers/STM32L4xx_HAL_Driver/Src/stm32l4xx_hal_flash_ex.c ****   * @param  RDPLevel specifies the read protection level.
 720:Drivers/STM32L4xx_HAL_Driver/Src/stm32l4xx_hal_flash_ex.c ****   *         This parameter can be one of the following values:
 721:Drivers/STM32L4xx_HAL_Driver/Src/stm32l4xx_hal_flash_ex.c ****   *            @arg OB_RDP_LEVEL_0: No protection
 722:Drivers/STM32L4xx_HAL_Driver/Src/stm32l4xx_hal_flash_ex.c ****   *            @arg OB_RDP_LEVEL_1: Read protection of the memory
 723:Drivers/STM32L4xx_HAL_Driver/Src/stm32l4xx_hal_flash_ex.c ****   *            @arg OB_RDP_LEVEL_2: Full chip protection
ARM GAS  /tmp/cc5sw4Du.s 			page 15


 724:Drivers/STM32L4xx_HAL_Driver/Src/stm32l4xx_hal_flash_ex.c ****   *
 725:Drivers/STM32L4xx_HAL_Driver/Src/stm32l4xx_hal_flash_ex.c ****   * @retval HAL status
 726:Drivers/STM32L4xx_HAL_Driver/Src/stm32l4xx_hal_flash_ex.c ****   */
 727:Drivers/STM32L4xx_HAL_Driver/Src/stm32l4xx_hal_flash_ex.c **** static HAL_StatusTypeDef FLASH_OB_RDPConfig(uint32_t RDPLevel)
 728:Drivers/STM32L4xx_HAL_Driver/Src/stm32l4xx_hal_flash_ex.c **** {
 729:Drivers/STM32L4xx_HAL_Driver/Src/stm32l4xx_hal_flash_ex.c ****   HAL_StatusTypeDef status;
 730:Drivers/STM32L4xx_HAL_Driver/Src/stm32l4xx_hal_flash_ex.c **** 
 731:Drivers/STM32L4xx_HAL_Driver/Src/stm32l4xx_hal_flash_ex.c ****   /* Check the parameters */
 732:Drivers/STM32L4xx_HAL_Driver/Src/stm32l4xx_hal_flash_ex.c ****   assert_param(IS_OB_RDP_LEVEL(RDPLevel));
 733:Drivers/STM32L4xx_HAL_Driver/Src/stm32l4xx_hal_flash_ex.c **** 
 734:Drivers/STM32L4xx_HAL_Driver/Src/stm32l4xx_hal_flash_ex.c ****   /* Wait for last operation to be completed */
 735:Drivers/STM32L4xx_HAL_Driver/Src/stm32l4xx_hal_flash_ex.c ****   status = FLASH_WaitForLastOperation((uint32_t)FLASH_TIMEOUT_VALUE);
 736:Drivers/STM32L4xx_HAL_Driver/Src/stm32l4xx_hal_flash_ex.c **** 
 737:Drivers/STM32L4xx_HAL_Driver/Src/stm32l4xx_hal_flash_ex.c ****   if(status == HAL_OK)
 738:Drivers/STM32L4xx_HAL_Driver/Src/stm32l4xx_hal_flash_ex.c ****   {
 739:Drivers/STM32L4xx_HAL_Driver/Src/stm32l4xx_hal_flash_ex.c ****     /* Configure the RDP level in the option bytes register */
 740:Drivers/STM32L4xx_HAL_Driver/Src/stm32l4xx_hal_flash_ex.c ****     MODIFY_REG(FLASH->OPTR, FLASH_OPTR_RDP, RDPLevel);
 741:Drivers/STM32L4xx_HAL_Driver/Src/stm32l4xx_hal_flash_ex.c **** 
 742:Drivers/STM32L4xx_HAL_Driver/Src/stm32l4xx_hal_flash_ex.c ****     /* Set OPTSTRT Bit */
 743:Drivers/STM32L4xx_HAL_Driver/Src/stm32l4xx_hal_flash_ex.c ****     SET_BIT(FLASH->CR, FLASH_CR_OPTSTRT);
 744:Drivers/STM32L4xx_HAL_Driver/Src/stm32l4xx_hal_flash_ex.c **** 
 745:Drivers/STM32L4xx_HAL_Driver/Src/stm32l4xx_hal_flash_ex.c ****     /* Wait for last operation to be completed */
 746:Drivers/STM32L4xx_HAL_Driver/Src/stm32l4xx_hal_flash_ex.c ****     status = FLASH_WaitForLastOperation((uint32_t)FLASH_TIMEOUT_VALUE);
 747:Drivers/STM32L4xx_HAL_Driver/Src/stm32l4xx_hal_flash_ex.c **** 
 748:Drivers/STM32L4xx_HAL_Driver/Src/stm32l4xx_hal_flash_ex.c ****     /* If the option byte program operation is completed, disable the OPTSTRT Bit */
 749:Drivers/STM32L4xx_HAL_Driver/Src/stm32l4xx_hal_flash_ex.c ****     CLEAR_BIT(FLASH->CR, FLASH_CR_OPTSTRT);
 750:Drivers/STM32L4xx_HAL_Driver/Src/stm32l4xx_hal_flash_ex.c ****   }
 751:Drivers/STM32L4xx_HAL_Driver/Src/stm32l4xx_hal_flash_ex.c **** 
 752:Drivers/STM32L4xx_HAL_Driver/Src/stm32l4xx_hal_flash_ex.c ****   return status;
 753:Drivers/STM32L4xx_HAL_Driver/Src/stm32l4xx_hal_flash_ex.c **** }
 754:Drivers/STM32L4xx_HAL_Driver/Src/stm32l4xx_hal_flash_ex.c **** 
 755:Drivers/STM32L4xx_HAL_Driver/Src/stm32l4xx_hal_flash_ex.c **** /**
 756:Drivers/STM32L4xx_HAL_Driver/Src/stm32l4xx_hal_flash_ex.c ****   * @brief  Program the FLASH User Option Byte.
 757:Drivers/STM32L4xx_HAL_Driver/Src/stm32l4xx_hal_flash_ex.c ****   *
 758:Drivers/STM32L4xx_HAL_Driver/Src/stm32l4xx_hal_flash_ex.c ****   * @note   To configure the user option bytes, the option lock bit OPTLOCK must
 759:Drivers/STM32L4xx_HAL_Driver/Src/stm32l4xx_hal_flash_ex.c ****   *         be cleared with the call of the HAL_FLASH_OB_Unlock() function.
 760:Drivers/STM32L4xx_HAL_Driver/Src/stm32l4xx_hal_flash_ex.c ****   * @note   To validate the user option bytes, the option bytes must be reloaded
 761:Drivers/STM32L4xx_HAL_Driver/Src/stm32l4xx_hal_flash_ex.c ****   *         through the call of the HAL_FLASH_OB_Launch() function.
 762:Drivers/STM32L4xx_HAL_Driver/Src/stm32l4xx_hal_flash_ex.c ****   *
 763:Drivers/STM32L4xx_HAL_Driver/Src/stm32l4xx_hal_flash_ex.c ****   * @param  UserType The FLASH User Option Bytes to be modified
 764:Drivers/STM32L4xx_HAL_Driver/Src/stm32l4xx_hal_flash_ex.c ****   * @param  UserConfig The FLASH User Option Bytes values:
 765:Drivers/STM32L4xx_HAL_Driver/Src/stm32l4xx_hal_flash_ex.c ****   *         BOR_LEV(Bit8-10), nRST_STOP(Bit12), nRST_STDBY(Bit13), IWDG_SW(Bit16),
 766:Drivers/STM32L4xx_HAL_Driver/Src/stm32l4xx_hal_flash_ex.c ****   *         IWDG_STOP(Bit17), IWDG_STDBY(Bit18), WWDG_SW(Bit19), BFB2(Bit20),
 767:Drivers/STM32L4xx_HAL_Driver/Src/stm32l4xx_hal_flash_ex.c ****   *         DUALBANK(Bit21), nBOOT1(Bit23), SRAM2_PE(Bit24) and SRAM2_RST(Bit25).
 768:Drivers/STM32L4xx_HAL_Driver/Src/stm32l4xx_hal_flash_ex.c ****   *
 769:Drivers/STM32L4xx_HAL_Driver/Src/stm32l4xx_hal_flash_ex.c ****   * @retval HAL status
 770:Drivers/STM32L4xx_HAL_Driver/Src/stm32l4xx_hal_flash_ex.c ****   */
 771:Drivers/STM32L4xx_HAL_Driver/Src/stm32l4xx_hal_flash_ex.c **** static HAL_StatusTypeDef FLASH_OB_UserConfig(uint32_t UserType, uint32_t UserConfig)
 772:Drivers/STM32L4xx_HAL_Driver/Src/stm32l4xx_hal_flash_ex.c **** {
 773:Drivers/STM32L4xx_HAL_Driver/Src/stm32l4xx_hal_flash_ex.c ****   uint32_t optr_reg_val = 0;
 774:Drivers/STM32L4xx_HAL_Driver/Src/stm32l4xx_hal_flash_ex.c ****   uint32_t optr_reg_mask = 0;
 775:Drivers/STM32L4xx_HAL_Driver/Src/stm32l4xx_hal_flash_ex.c ****   HAL_StatusTypeDef status;
 776:Drivers/STM32L4xx_HAL_Driver/Src/stm32l4xx_hal_flash_ex.c **** 
 777:Drivers/STM32L4xx_HAL_Driver/Src/stm32l4xx_hal_flash_ex.c ****   /* Check the parameters */
 778:Drivers/STM32L4xx_HAL_Driver/Src/stm32l4xx_hal_flash_ex.c ****   assert_param(IS_OB_USER_TYPE(UserType));
 779:Drivers/STM32L4xx_HAL_Driver/Src/stm32l4xx_hal_flash_ex.c **** 
 780:Drivers/STM32L4xx_HAL_Driver/Src/stm32l4xx_hal_flash_ex.c ****   /* Wait for last operation to be completed */
ARM GAS  /tmp/cc5sw4Du.s 			page 16


 781:Drivers/STM32L4xx_HAL_Driver/Src/stm32l4xx_hal_flash_ex.c ****   status = FLASH_WaitForLastOperation((uint32_t)FLASH_TIMEOUT_VALUE);
 782:Drivers/STM32L4xx_HAL_Driver/Src/stm32l4xx_hal_flash_ex.c **** 
 783:Drivers/STM32L4xx_HAL_Driver/Src/stm32l4xx_hal_flash_ex.c ****   if(status == HAL_OK)
 784:Drivers/STM32L4xx_HAL_Driver/Src/stm32l4xx_hal_flash_ex.c ****   {
 785:Drivers/STM32L4xx_HAL_Driver/Src/stm32l4xx_hal_flash_ex.c ****     if((UserType & OB_USER_BOR_LEV) != 0U)
 786:Drivers/STM32L4xx_HAL_Driver/Src/stm32l4xx_hal_flash_ex.c ****     {
 787:Drivers/STM32L4xx_HAL_Driver/Src/stm32l4xx_hal_flash_ex.c ****       /* BOR level option byte should be modified */
 788:Drivers/STM32L4xx_HAL_Driver/Src/stm32l4xx_hal_flash_ex.c ****       assert_param(IS_OB_USER_BOR_LEVEL(UserConfig & FLASH_OPTR_BOR_LEV));
 789:Drivers/STM32L4xx_HAL_Driver/Src/stm32l4xx_hal_flash_ex.c **** 
 790:Drivers/STM32L4xx_HAL_Driver/Src/stm32l4xx_hal_flash_ex.c ****       /* Set value and mask for BOR level option byte */
 791:Drivers/STM32L4xx_HAL_Driver/Src/stm32l4xx_hal_flash_ex.c ****       optr_reg_val |= (UserConfig & FLASH_OPTR_BOR_LEV);
 792:Drivers/STM32L4xx_HAL_Driver/Src/stm32l4xx_hal_flash_ex.c ****       optr_reg_mask |= FLASH_OPTR_BOR_LEV;
 793:Drivers/STM32L4xx_HAL_Driver/Src/stm32l4xx_hal_flash_ex.c ****     }
 794:Drivers/STM32L4xx_HAL_Driver/Src/stm32l4xx_hal_flash_ex.c **** 
 795:Drivers/STM32L4xx_HAL_Driver/Src/stm32l4xx_hal_flash_ex.c ****     if((UserType & OB_USER_nRST_STOP) != 0U)
 796:Drivers/STM32L4xx_HAL_Driver/Src/stm32l4xx_hal_flash_ex.c ****     {
 797:Drivers/STM32L4xx_HAL_Driver/Src/stm32l4xx_hal_flash_ex.c ****       /* nRST_STOP option byte should be modified */
 798:Drivers/STM32L4xx_HAL_Driver/Src/stm32l4xx_hal_flash_ex.c ****       assert_param(IS_OB_USER_STOP(UserConfig & FLASH_OPTR_nRST_STOP));
 799:Drivers/STM32L4xx_HAL_Driver/Src/stm32l4xx_hal_flash_ex.c **** 
 800:Drivers/STM32L4xx_HAL_Driver/Src/stm32l4xx_hal_flash_ex.c ****       /* Set value and mask for nRST_STOP option byte */
 801:Drivers/STM32L4xx_HAL_Driver/Src/stm32l4xx_hal_flash_ex.c ****       optr_reg_val |= (UserConfig & FLASH_OPTR_nRST_STOP);
 802:Drivers/STM32L4xx_HAL_Driver/Src/stm32l4xx_hal_flash_ex.c ****       optr_reg_mask |= FLASH_OPTR_nRST_STOP;
 803:Drivers/STM32L4xx_HAL_Driver/Src/stm32l4xx_hal_flash_ex.c ****     }
 804:Drivers/STM32L4xx_HAL_Driver/Src/stm32l4xx_hal_flash_ex.c **** 
 805:Drivers/STM32L4xx_HAL_Driver/Src/stm32l4xx_hal_flash_ex.c ****     if((UserType & OB_USER_nRST_STDBY) != 0U)
 806:Drivers/STM32L4xx_HAL_Driver/Src/stm32l4xx_hal_flash_ex.c ****     {
 807:Drivers/STM32L4xx_HAL_Driver/Src/stm32l4xx_hal_flash_ex.c ****       /* nRST_STDBY option byte should be modified */
 808:Drivers/STM32L4xx_HAL_Driver/Src/stm32l4xx_hal_flash_ex.c ****       assert_param(IS_OB_USER_STANDBY(UserConfig & FLASH_OPTR_nRST_STDBY));
 809:Drivers/STM32L4xx_HAL_Driver/Src/stm32l4xx_hal_flash_ex.c **** 
 810:Drivers/STM32L4xx_HAL_Driver/Src/stm32l4xx_hal_flash_ex.c ****       /* Set value and mask for nRST_STDBY option byte */
 811:Drivers/STM32L4xx_HAL_Driver/Src/stm32l4xx_hal_flash_ex.c ****       optr_reg_val |= (UserConfig & FLASH_OPTR_nRST_STDBY);
 812:Drivers/STM32L4xx_HAL_Driver/Src/stm32l4xx_hal_flash_ex.c ****       optr_reg_mask |= FLASH_OPTR_nRST_STDBY;
 813:Drivers/STM32L4xx_HAL_Driver/Src/stm32l4xx_hal_flash_ex.c ****     }
 814:Drivers/STM32L4xx_HAL_Driver/Src/stm32l4xx_hal_flash_ex.c **** 
 815:Drivers/STM32L4xx_HAL_Driver/Src/stm32l4xx_hal_flash_ex.c ****     if((UserType & OB_USER_nRST_SHDW) != 0U)
 816:Drivers/STM32L4xx_HAL_Driver/Src/stm32l4xx_hal_flash_ex.c ****     {
 817:Drivers/STM32L4xx_HAL_Driver/Src/stm32l4xx_hal_flash_ex.c ****       /* nRST_SHDW option byte should be modified */
 818:Drivers/STM32L4xx_HAL_Driver/Src/stm32l4xx_hal_flash_ex.c ****       assert_param(IS_OB_USER_SHUTDOWN(UserConfig & FLASH_OPTR_nRST_SHDW));
 819:Drivers/STM32L4xx_HAL_Driver/Src/stm32l4xx_hal_flash_ex.c **** 
 820:Drivers/STM32L4xx_HAL_Driver/Src/stm32l4xx_hal_flash_ex.c ****       /* Set value and mask for nRST_SHDW option byte */
 821:Drivers/STM32L4xx_HAL_Driver/Src/stm32l4xx_hal_flash_ex.c ****       optr_reg_val |= (UserConfig & FLASH_OPTR_nRST_SHDW);
 822:Drivers/STM32L4xx_HAL_Driver/Src/stm32l4xx_hal_flash_ex.c ****       optr_reg_mask |= FLASH_OPTR_nRST_SHDW;
 823:Drivers/STM32L4xx_HAL_Driver/Src/stm32l4xx_hal_flash_ex.c ****     }
 824:Drivers/STM32L4xx_HAL_Driver/Src/stm32l4xx_hal_flash_ex.c **** 
 825:Drivers/STM32L4xx_HAL_Driver/Src/stm32l4xx_hal_flash_ex.c ****     if((UserType & OB_USER_IWDG_SW) != 0U)
 826:Drivers/STM32L4xx_HAL_Driver/Src/stm32l4xx_hal_flash_ex.c ****     {
 827:Drivers/STM32L4xx_HAL_Driver/Src/stm32l4xx_hal_flash_ex.c ****       /* IWDG_SW option byte should be modified */
 828:Drivers/STM32L4xx_HAL_Driver/Src/stm32l4xx_hal_flash_ex.c ****       assert_param(IS_OB_USER_IWDG(UserConfig & FLASH_OPTR_IWDG_SW));
 829:Drivers/STM32L4xx_HAL_Driver/Src/stm32l4xx_hal_flash_ex.c **** 
 830:Drivers/STM32L4xx_HAL_Driver/Src/stm32l4xx_hal_flash_ex.c ****       /* Set value and mask for IWDG_SW option byte */
 831:Drivers/STM32L4xx_HAL_Driver/Src/stm32l4xx_hal_flash_ex.c ****       optr_reg_val |= (UserConfig & FLASH_OPTR_IWDG_SW);
 832:Drivers/STM32L4xx_HAL_Driver/Src/stm32l4xx_hal_flash_ex.c ****       optr_reg_mask |= FLASH_OPTR_IWDG_SW;
 833:Drivers/STM32L4xx_HAL_Driver/Src/stm32l4xx_hal_flash_ex.c ****     }
 834:Drivers/STM32L4xx_HAL_Driver/Src/stm32l4xx_hal_flash_ex.c **** 
 835:Drivers/STM32L4xx_HAL_Driver/Src/stm32l4xx_hal_flash_ex.c ****     if((UserType & OB_USER_IWDG_STOP) != 0U)
 836:Drivers/STM32L4xx_HAL_Driver/Src/stm32l4xx_hal_flash_ex.c ****     {
 837:Drivers/STM32L4xx_HAL_Driver/Src/stm32l4xx_hal_flash_ex.c ****       /* IWDG_STOP option byte should be modified */
ARM GAS  /tmp/cc5sw4Du.s 			page 17


 838:Drivers/STM32L4xx_HAL_Driver/Src/stm32l4xx_hal_flash_ex.c ****       assert_param(IS_OB_USER_IWDG_STOP(UserConfig & FLASH_OPTR_IWDG_STOP));
 839:Drivers/STM32L4xx_HAL_Driver/Src/stm32l4xx_hal_flash_ex.c **** 
 840:Drivers/STM32L4xx_HAL_Driver/Src/stm32l4xx_hal_flash_ex.c ****       /* Set value and mask for IWDG_STOP option byte */
 841:Drivers/STM32L4xx_HAL_Driver/Src/stm32l4xx_hal_flash_ex.c ****       optr_reg_val |= (UserConfig & FLASH_OPTR_IWDG_STOP);
 842:Drivers/STM32L4xx_HAL_Driver/Src/stm32l4xx_hal_flash_ex.c ****       optr_reg_mask |= FLASH_OPTR_IWDG_STOP;
 843:Drivers/STM32L4xx_HAL_Driver/Src/stm32l4xx_hal_flash_ex.c ****     }
 844:Drivers/STM32L4xx_HAL_Driver/Src/stm32l4xx_hal_flash_ex.c **** 
 845:Drivers/STM32L4xx_HAL_Driver/Src/stm32l4xx_hal_flash_ex.c ****     if((UserType & OB_USER_IWDG_STDBY) != 0U)
 846:Drivers/STM32L4xx_HAL_Driver/Src/stm32l4xx_hal_flash_ex.c ****     {
 847:Drivers/STM32L4xx_HAL_Driver/Src/stm32l4xx_hal_flash_ex.c ****       /* IWDG_STDBY option byte should be modified */
 848:Drivers/STM32L4xx_HAL_Driver/Src/stm32l4xx_hal_flash_ex.c ****       assert_param(IS_OB_USER_IWDG_STDBY(UserConfig & FLASH_OPTR_IWDG_STDBY));
 849:Drivers/STM32L4xx_HAL_Driver/Src/stm32l4xx_hal_flash_ex.c **** 
 850:Drivers/STM32L4xx_HAL_Driver/Src/stm32l4xx_hal_flash_ex.c ****       /* Set value and mask for IWDG_STDBY option byte */
 851:Drivers/STM32L4xx_HAL_Driver/Src/stm32l4xx_hal_flash_ex.c ****       optr_reg_val |= (UserConfig & FLASH_OPTR_IWDG_STDBY);
 852:Drivers/STM32L4xx_HAL_Driver/Src/stm32l4xx_hal_flash_ex.c ****       optr_reg_mask |= FLASH_OPTR_IWDG_STDBY;
 853:Drivers/STM32L4xx_HAL_Driver/Src/stm32l4xx_hal_flash_ex.c ****     }
 854:Drivers/STM32L4xx_HAL_Driver/Src/stm32l4xx_hal_flash_ex.c **** 
 855:Drivers/STM32L4xx_HAL_Driver/Src/stm32l4xx_hal_flash_ex.c ****     if((UserType & OB_USER_WWDG_SW) != 0U)
 856:Drivers/STM32L4xx_HAL_Driver/Src/stm32l4xx_hal_flash_ex.c ****     {
 857:Drivers/STM32L4xx_HAL_Driver/Src/stm32l4xx_hal_flash_ex.c ****       /* WWDG_SW option byte should be modified */
 858:Drivers/STM32L4xx_HAL_Driver/Src/stm32l4xx_hal_flash_ex.c ****       assert_param(IS_OB_USER_WWDG(UserConfig & FLASH_OPTR_WWDG_SW));
 859:Drivers/STM32L4xx_HAL_Driver/Src/stm32l4xx_hal_flash_ex.c **** 
 860:Drivers/STM32L4xx_HAL_Driver/Src/stm32l4xx_hal_flash_ex.c ****       /* Set value and mask for WWDG_SW option byte */
 861:Drivers/STM32L4xx_HAL_Driver/Src/stm32l4xx_hal_flash_ex.c ****       optr_reg_val |= (UserConfig & FLASH_OPTR_WWDG_SW);
 862:Drivers/STM32L4xx_HAL_Driver/Src/stm32l4xx_hal_flash_ex.c ****       optr_reg_mask |= FLASH_OPTR_WWDG_SW;
 863:Drivers/STM32L4xx_HAL_Driver/Src/stm32l4xx_hal_flash_ex.c ****     }
 864:Drivers/STM32L4xx_HAL_Driver/Src/stm32l4xx_hal_flash_ex.c **** 
 865:Drivers/STM32L4xx_HAL_Driver/Src/stm32l4xx_hal_flash_ex.c **** #if defined (STM32L471xx) || defined (STM32L475xx) || defined (STM32L476xx) || defined (STM32L485xx
 866:Drivers/STM32L4xx_HAL_Driver/Src/stm32l4xx_hal_flash_ex.c ****     defined (STM32L496xx) || defined (STM32L4A6xx) || \
 867:Drivers/STM32L4xx_HAL_Driver/Src/stm32l4xx_hal_flash_ex.c ****     defined (STM32L4P5xx) || defined (STM32L4Q5xx) || \
 868:Drivers/STM32L4xx_HAL_Driver/Src/stm32l4xx_hal_flash_ex.c ****     defined (STM32L4R5xx) || defined (STM32L4R7xx) || defined (STM32L4R9xx) || defined (STM32L4S5xx
 869:Drivers/STM32L4xx_HAL_Driver/Src/stm32l4xx_hal_flash_ex.c ****     if((UserType & OB_USER_BFB2) != 0U)
 870:Drivers/STM32L4xx_HAL_Driver/Src/stm32l4xx_hal_flash_ex.c ****     {
 871:Drivers/STM32L4xx_HAL_Driver/Src/stm32l4xx_hal_flash_ex.c ****       /* BFB2 option byte should be modified */
 872:Drivers/STM32L4xx_HAL_Driver/Src/stm32l4xx_hal_flash_ex.c ****       assert_param(IS_OB_USER_BFB2(UserConfig & FLASH_OPTR_BFB2));
 873:Drivers/STM32L4xx_HAL_Driver/Src/stm32l4xx_hal_flash_ex.c **** 
 874:Drivers/STM32L4xx_HAL_Driver/Src/stm32l4xx_hal_flash_ex.c ****       /* Set value and mask for BFB2 option byte */
 875:Drivers/STM32L4xx_HAL_Driver/Src/stm32l4xx_hal_flash_ex.c ****       optr_reg_val |= (UserConfig & FLASH_OPTR_BFB2);
 876:Drivers/STM32L4xx_HAL_Driver/Src/stm32l4xx_hal_flash_ex.c ****       optr_reg_mask |= FLASH_OPTR_BFB2;
 877:Drivers/STM32L4xx_HAL_Driver/Src/stm32l4xx_hal_flash_ex.c ****     }
 878:Drivers/STM32L4xx_HAL_Driver/Src/stm32l4xx_hal_flash_ex.c **** 
 879:Drivers/STM32L4xx_HAL_Driver/Src/stm32l4xx_hal_flash_ex.c ****     if((UserType & OB_USER_DUALBANK) != 0U)
 880:Drivers/STM32L4xx_HAL_Driver/Src/stm32l4xx_hal_flash_ex.c ****     {
 881:Drivers/STM32L4xx_HAL_Driver/Src/stm32l4xx_hal_flash_ex.c **** #if defined (STM32L4P5xx) || defined (STM32L4Q5xx) || defined (STM32L4R5xx) || defined (STM32L4R7xx
 882:Drivers/STM32L4xx_HAL_Driver/Src/stm32l4xx_hal_flash_ex.c ****       /* DUALBANK option byte should be modified */
 883:Drivers/STM32L4xx_HAL_Driver/Src/stm32l4xx_hal_flash_ex.c ****       assert_param(IS_OB_USER_DUALBANK(UserConfig & FLASH_OPTR_DB1M));
 884:Drivers/STM32L4xx_HAL_Driver/Src/stm32l4xx_hal_flash_ex.c **** 
 885:Drivers/STM32L4xx_HAL_Driver/Src/stm32l4xx_hal_flash_ex.c ****       /* Set value and mask for DUALBANK option byte */
 886:Drivers/STM32L4xx_HAL_Driver/Src/stm32l4xx_hal_flash_ex.c ****       optr_reg_val |= (UserConfig & FLASH_OPTR_DB1M);
 887:Drivers/STM32L4xx_HAL_Driver/Src/stm32l4xx_hal_flash_ex.c ****       optr_reg_mask |= FLASH_OPTR_DB1M;
 888:Drivers/STM32L4xx_HAL_Driver/Src/stm32l4xx_hal_flash_ex.c **** #else
 889:Drivers/STM32L4xx_HAL_Driver/Src/stm32l4xx_hal_flash_ex.c ****       /* DUALBANK option byte should be modified */
 890:Drivers/STM32L4xx_HAL_Driver/Src/stm32l4xx_hal_flash_ex.c ****       assert_param(IS_OB_USER_DUALBANK(UserConfig & FLASH_OPTR_DUALBANK));
 891:Drivers/STM32L4xx_HAL_Driver/Src/stm32l4xx_hal_flash_ex.c **** 
 892:Drivers/STM32L4xx_HAL_Driver/Src/stm32l4xx_hal_flash_ex.c ****       /* Set value and mask for DUALBANK option byte */
 893:Drivers/STM32L4xx_HAL_Driver/Src/stm32l4xx_hal_flash_ex.c ****       optr_reg_val |= (UserConfig & FLASH_OPTR_DUALBANK);
 894:Drivers/STM32L4xx_HAL_Driver/Src/stm32l4xx_hal_flash_ex.c ****       optr_reg_mask |= FLASH_OPTR_DUALBANK;
ARM GAS  /tmp/cc5sw4Du.s 			page 18


 895:Drivers/STM32L4xx_HAL_Driver/Src/stm32l4xx_hal_flash_ex.c **** #endif
 896:Drivers/STM32L4xx_HAL_Driver/Src/stm32l4xx_hal_flash_ex.c ****     }
 897:Drivers/STM32L4xx_HAL_Driver/Src/stm32l4xx_hal_flash_ex.c **** #endif
 898:Drivers/STM32L4xx_HAL_Driver/Src/stm32l4xx_hal_flash_ex.c **** 
 899:Drivers/STM32L4xx_HAL_Driver/Src/stm32l4xx_hal_flash_ex.c ****     if((UserType & OB_USER_nBOOT1) != 0U)
 900:Drivers/STM32L4xx_HAL_Driver/Src/stm32l4xx_hal_flash_ex.c ****     {
 901:Drivers/STM32L4xx_HAL_Driver/Src/stm32l4xx_hal_flash_ex.c ****       /* nBOOT1 option byte should be modified */
 902:Drivers/STM32L4xx_HAL_Driver/Src/stm32l4xx_hal_flash_ex.c ****       assert_param(IS_OB_USER_BOOT1(UserConfig & FLASH_OPTR_nBOOT1));
 903:Drivers/STM32L4xx_HAL_Driver/Src/stm32l4xx_hal_flash_ex.c **** 
 904:Drivers/STM32L4xx_HAL_Driver/Src/stm32l4xx_hal_flash_ex.c ****       /* Set value and mask for nBOOT1 option byte */
 905:Drivers/STM32L4xx_HAL_Driver/Src/stm32l4xx_hal_flash_ex.c ****       optr_reg_val |= (UserConfig & FLASH_OPTR_nBOOT1);
 906:Drivers/STM32L4xx_HAL_Driver/Src/stm32l4xx_hal_flash_ex.c ****       optr_reg_mask |= FLASH_OPTR_nBOOT1;
 907:Drivers/STM32L4xx_HAL_Driver/Src/stm32l4xx_hal_flash_ex.c ****     }
 908:Drivers/STM32L4xx_HAL_Driver/Src/stm32l4xx_hal_flash_ex.c **** 
 909:Drivers/STM32L4xx_HAL_Driver/Src/stm32l4xx_hal_flash_ex.c ****     if((UserType & OB_USER_SRAM2_PE) != 0U)
 910:Drivers/STM32L4xx_HAL_Driver/Src/stm32l4xx_hal_flash_ex.c ****     {
 911:Drivers/STM32L4xx_HAL_Driver/Src/stm32l4xx_hal_flash_ex.c ****       /* SRAM2_PE option byte should be modified */
 912:Drivers/STM32L4xx_HAL_Driver/Src/stm32l4xx_hal_flash_ex.c ****       assert_param(IS_OB_USER_SRAM2_PARITY(UserConfig & FLASH_OPTR_SRAM2_PE));
 913:Drivers/STM32L4xx_HAL_Driver/Src/stm32l4xx_hal_flash_ex.c **** 
 914:Drivers/STM32L4xx_HAL_Driver/Src/stm32l4xx_hal_flash_ex.c ****       /* Set value and mask for SRAM2_PE option byte */
 915:Drivers/STM32L4xx_HAL_Driver/Src/stm32l4xx_hal_flash_ex.c ****       optr_reg_val |= (UserConfig & FLASH_OPTR_SRAM2_PE);
 916:Drivers/STM32L4xx_HAL_Driver/Src/stm32l4xx_hal_flash_ex.c ****       optr_reg_mask |= FLASH_OPTR_SRAM2_PE;
 917:Drivers/STM32L4xx_HAL_Driver/Src/stm32l4xx_hal_flash_ex.c ****     }
 918:Drivers/STM32L4xx_HAL_Driver/Src/stm32l4xx_hal_flash_ex.c **** 
 919:Drivers/STM32L4xx_HAL_Driver/Src/stm32l4xx_hal_flash_ex.c ****     if((UserType & OB_USER_SRAM2_RST) != 0U)
 920:Drivers/STM32L4xx_HAL_Driver/Src/stm32l4xx_hal_flash_ex.c ****     {
 921:Drivers/STM32L4xx_HAL_Driver/Src/stm32l4xx_hal_flash_ex.c ****       /* SRAM2_RST option byte should be modified */
 922:Drivers/STM32L4xx_HAL_Driver/Src/stm32l4xx_hal_flash_ex.c ****       assert_param(IS_OB_USER_SRAM2_RST(UserConfig & FLASH_OPTR_SRAM2_RST));
 923:Drivers/STM32L4xx_HAL_Driver/Src/stm32l4xx_hal_flash_ex.c **** 
 924:Drivers/STM32L4xx_HAL_Driver/Src/stm32l4xx_hal_flash_ex.c ****       /* Set value and mask for SRAM2_RST option byte */
 925:Drivers/STM32L4xx_HAL_Driver/Src/stm32l4xx_hal_flash_ex.c ****       optr_reg_val |= (UserConfig & FLASH_OPTR_SRAM2_RST);
 926:Drivers/STM32L4xx_HAL_Driver/Src/stm32l4xx_hal_flash_ex.c ****       optr_reg_mask |= FLASH_OPTR_SRAM2_RST;
 927:Drivers/STM32L4xx_HAL_Driver/Src/stm32l4xx_hal_flash_ex.c ****     }
 928:Drivers/STM32L4xx_HAL_Driver/Src/stm32l4xx_hal_flash_ex.c **** 
 929:Drivers/STM32L4xx_HAL_Driver/Src/stm32l4xx_hal_flash_ex.c **** #if defined (STM32L412xx) || defined (STM32L422xx) || defined (STM32L431xx) || defined (STM32L432xx
 930:Drivers/STM32L4xx_HAL_Driver/Src/stm32l4xx_hal_flash_ex.c ****     defined (STM32L442xx) || defined (STM32L443xx) || defined (STM32L451xx) || defined (STM32L452xx
 931:Drivers/STM32L4xx_HAL_Driver/Src/stm32l4xx_hal_flash_ex.c ****     defined (STM32L496xx) || defined (STM32L4A6xx) || \
 932:Drivers/STM32L4xx_HAL_Driver/Src/stm32l4xx_hal_flash_ex.c ****     defined (STM32L4P5xx) || defined (STM32L4Q5xx) || \
 933:Drivers/STM32L4xx_HAL_Driver/Src/stm32l4xx_hal_flash_ex.c ****     defined (STM32L4R5xx) || defined (STM32L4R7xx) || defined (STM32L4R9xx) || defined (STM32L4S5xx
 934:Drivers/STM32L4xx_HAL_Driver/Src/stm32l4xx_hal_flash_ex.c ****     if((UserType & OB_USER_nSWBOOT0) != 0U)
 935:Drivers/STM32L4xx_HAL_Driver/Src/stm32l4xx_hal_flash_ex.c ****     {
 936:Drivers/STM32L4xx_HAL_Driver/Src/stm32l4xx_hal_flash_ex.c ****       /* nSWBOOT0 option byte should be modified */
 937:Drivers/STM32L4xx_HAL_Driver/Src/stm32l4xx_hal_flash_ex.c ****       assert_param(IS_OB_USER_SWBOOT0(UserConfig & FLASH_OPTR_nSWBOOT0));
 938:Drivers/STM32L4xx_HAL_Driver/Src/stm32l4xx_hal_flash_ex.c **** 
 939:Drivers/STM32L4xx_HAL_Driver/Src/stm32l4xx_hal_flash_ex.c ****       /* Set value and mask for nSWBOOT0 option byte */
 940:Drivers/STM32L4xx_HAL_Driver/Src/stm32l4xx_hal_flash_ex.c ****       optr_reg_val |= (UserConfig & FLASH_OPTR_nSWBOOT0);
 941:Drivers/STM32L4xx_HAL_Driver/Src/stm32l4xx_hal_flash_ex.c ****       optr_reg_mask |= FLASH_OPTR_nSWBOOT0;
 942:Drivers/STM32L4xx_HAL_Driver/Src/stm32l4xx_hal_flash_ex.c ****     }
 943:Drivers/STM32L4xx_HAL_Driver/Src/stm32l4xx_hal_flash_ex.c **** 
 944:Drivers/STM32L4xx_HAL_Driver/Src/stm32l4xx_hal_flash_ex.c ****     if((UserType & OB_USER_nBOOT0) != 0U)
 945:Drivers/STM32L4xx_HAL_Driver/Src/stm32l4xx_hal_flash_ex.c ****     {
 946:Drivers/STM32L4xx_HAL_Driver/Src/stm32l4xx_hal_flash_ex.c ****       /* nBOOT0 option byte should be modified */
 947:Drivers/STM32L4xx_HAL_Driver/Src/stm32l4xx_hal_flash_ex.c ****       assert_param(IS_OB_USER_BOOT0(UserConfig & FLASH_OPTR_nBOOT0));
 948:Drivers/STM32L4xx_HAL_Driver/Src/stm32l4xx_hal_flash_ex.c **** 
 949:Drivers/STM32L4xx_HAL_Driver/Src/stm32l4xx_hal_flash_ex.c ****       /* Set value and mask for nBOOT0 option byte */
 950:Drivers/STM32L4xx_HAL_Driver/Src/stm32l4xx_hal_flash_ex.c ****       optr_reg_val |= (UserConfig & FLASH_OPTR_nBOOT0);
 951:Drivers/STM32L4xx_HAL_Driver/Src/stm32l4xx_hal_flash_ex.c ****       optr_reg_mask |= FLASH_OPTR_nBOOT0;
ARM GAS  /tmp/cc5sw4Du.s 			page 19


 952:Drivers/STM32L4xx_HAL_Driver/Src/stm32l4xx_hal_flash_ex.c ****     }
 953:Drivers/STM32L4xx_HAL_Driver/Src/stm32l4xx_hal_flash_ex.c **** #endif
 954:Drivers/STM32L4xx_HAL_Driver/Src/stm32l4xx_hal_flash_ex.c **** 
 955:Drivers/STM32L4xx_HAL_Driver/Src/stm32l4xx_hal_flash_ex.c ****     /* Configure the option bytes register */
 956:Drivers/STM32L4xx_HAL_Driver/Src/stm32l4xx_hal_flash_ex.c ****     MODIFY_REG(FLASH->OPTR, optr_reg_mask, optr_reg_val);
 957:Drivers/STM32L4xx_HAL_Driver/Src/stm32l4xx_hal_flash_ex.c **** 
 958:Drivers/STM32L4xx_HAL_Driver/Src/stm32l4xx_hal_flash_ex.c ****     /* Set OPTSTRT Bit */
 959:Drivers/STM32L4xx_HAL_Driver/Src/stm32l4xx_hal_flash_ex.c ****     SET_BIT(FLASH->CR, FLASH_CR_OPTSTRT);
 960:Drivers/STM32L4xx_HAL_Driver/Src/stm32l4xx_hal_flash_ex.c **** 
 961:Drivers/STM32L4xx_HAL_Driver/Src/stm32l4xx_hal_flash_ex.c ****     /* Wait for last operation to be completed */
 962:Drivers/STM32L4xx_HAL_Driver/Src/stm32l4xx_hal_flash_ex.c ****     status = FLASH_WaitForLastOperation((uint32_t)FLASH_TIMEOUT_VALUE);
 963:Drivers/STM32L4xx_HAL_Driver/Src/stm32l4xx_hal_flash_ex.c **** 
 964:Drivers/STM32L4xx_HAL_Driver/Src/stm32l4xx_hal_flash_ex.c ****     /* If the option byte program operation is completed, disable the OPTSTRT Bit */
 965:Drivers/STM32L4xx_HAL_Driver/Src/stm32l4xx_hal_flash_ex.c ****     CLEAR_BIT(FLASH->CR, FLASH_CR_OPTSTRT);
 966:Drivers/STM32L4xx_HAL_Driver/Src/stm32l4xx_hal_flash_ex.c ****   }
 967:Drivers/STM32L4xx_HAL_Driver/Src/stm32l4xx_hal_flash_ex.c **** 
 968:Drivers/STM32L4xx_HAL_Driver/Src/stm32l4xx_hal_flash_ex.c ****   return status;
 969:Drivers/STM32L4xx_HAL_Driver/Src/stm32l4xx_hal_flash_ex.c **** }
 970:Drivers/STM32L4xx_HAL_Driver/Src/stm32l4xx_hal_flash_ex.c **** 
 971:Drivers/STM32L4xx_HAL_Driver/Src/stm32l4xx_hal_flash_ex.c **** /**
 972:Drivers/STM32L4xx_HAL_Driver/Src/stm32l4xx_hal_flash_ex.c ****   * @brief  Configure the Proprietary code readout protection of the desired addresses.
 973:Drivers/STM32L4xx_HAL_Driver/Src/stm32l4xx_hal_flash_ex.c ****   *
 974:Drivers/STM32L4xx_HAL_Driver/Src/stm32l4xx_hal_flash_ex.c ****   * @note   To configure the PCROP options, the option lock bit OPTLOCK must be
 975:Drivers/STM32L4xx_HAL_Driver/Src/stm32l4xx_hal_flash_ex.c ****   *         cleared with the call of the HAL_FLASH_OB_Unlock() function.
 976:Drivers/STM32L4xx_HAL_Driver/Src/stm32l4xx_hal_flash_ex.c ****   * @note   To validate the PCROP options, the option bytes must be reloaded
 977:Drivers/STM32L4xx_HAL_Driver/Src/stm32l4xx_hal_flash_ex.c ****   *         through the call of the HAL_FLASH_OB_Launch() function.
 978:Drivers/STM32L4xx_HAL_Driver/Src/stm32l4xx_hal_flash_ex.c ****   *
 979:Drivers/STM32L4xx_HAL_Driver/Src/stm32l4xx_hal_flash_ex.c ****   * @param  PCROPConfig specifies the configuration (Bank to be configured and PCROP_RDP option).
 980:Drivers/STM32L4xx_HAL_Driver/Src/stm32l4xx_hal_flash_ex.c ****   *          This parameter must be a combination of FLASH_BANK_1 or FLASH_BANK_2
 981:Drivers/STM32L4xx_HAL_Driver/Src/stm32l4xx_hal_flash_ex.c ****   *          with OB_PCROP_RDP_NOT_ERASE or OB_PCROP_RDP_ERASE
 982:Drivers/STM32L4xx_HAL_Driver/Src/stm32l4xx_hal_flash_ex.c ****   *
 983:Drivers/STM32L4xx_HAL_Driver/Src/stm32l4xx_hal_flash_ex.c ****   * @param  PCROPStartAddr specifies the start address of the Proprietary code readout protection
 984:Drivers/STM32L4xx_HAL_Driver/Src/stm32l4xx_hal_flash_ex.c ****   *          This parameter can be an address between begin and end of the bank
 985:Drivers/STM32L4xx_HAL_Driver/Src/stm32l4xx_hal_flash_ex.c ****   *
 986:Drivers/STM32L4xx_HAL_Driver/Src/stm32l4xx_hal_flash_ex.c ****   * @param  PCROPEndAddr specifies the end address of the Proprietary code readout protection
 987:Drivers/STM32L4xx_HAL_Driver/Src/stm32l4xx_hal_flash_ex.c ****   *          This parameter can be an address between PCROPStartAddr and end of the bank
 988:Drivers/STM32L4xx_HAL_Driver/Src/stm32l4xx_hal_flash_ex.c ****   *
 989:Drivers/STM32L4xx_HAL_Driver/Src/stm32l4xx_hal_flash_ex.c ****   * @retval HAL Status
 990:Drivers/STM32L4xx_HAL_Driver/Src/stm32l4xx_hal_flash_ex.c ****   */
 991:Drivers/STM32L4xx_HAL_Driver/Src/stm32l4xx_hal_flash_ex.c **** static HAL_StatusTypeDef FLASH_OB_PCROPConfig(uint32_t PCROPConfig, uint32_t PCROPStartAddr, uint32
 992:Drivers/STM32L4xx_HAL_Driver/Src/stm32l4xx_hal_flash_ex.c **** {
 993:Drivers/STM32L4xx_HAL_Driver/Src/stm32l4xx_hal_flash_ex.c ****   HAL_StatusTypeDef status;
 994:Drivers/STM32L4xx_HAL_Driver/Src/stm32l4xx_hal_flash_ex.c ****   uint32_t reg_value;
 995:Drivers/STM32L4xx_HAL_Driver/Src/stm32l4xx_hal_flash_ex.c ****   uint32_t bank1_addr;
 996:Drivers/STM32L4xx_HAL_Driver/Src/stm32l4xx_hal_flash_ex.c **** #if defined (STM32L471xx) || defined (STM32L475xx) || defined (STM32L476xx) || defined (STM32L485xx
 997:Drivers/STM32L4xx_HAL_Driver/Src/stm32l4xx_hal_flash_ex.c ****     defined (STM32L496xx) || defined (STM32L4A6xx) || \
 998:Drivers/STM32L4xx_HAL_Driver/Src/stm32l4xx_hal_flash_ex.c ****     defined (STM32L4P5xx) || defined (STM32L4Q5xx) || \
 999:Drivers/STM32L4xx_HAL_Driver/Src/stm32l4xx_hal_flash_ex.c ****     defined (STM32L4R5xx) || defined (STM32L4R7xx) || defined (STM32L4R9xx) || defined (STM32L4S5xx
1000:Drivers/STM32L4xx_HAL_Driver/Src/stm32l4xx_hal_flash_ex.c ****   uint32_t bank2_addr;
1001:Drivers/STM32L4xx_HAL_Driver/Src/stm32l4xx_hal_flash_ex.c **** #endif
1002:Drivers/STM32L4xx_HAL_Driver/Src/stm32l4xx_hal_flash_ex.c **** 
1003:Drivers/STM32L4xx_HAL_Driver/Src/stm32l4xx_hal_flash_ex.c ****   /* Check the parameters */
1004:Drivers/STM32L4xx_HAL_Driver/Src/stm32l4xx_hal_flash_ex.c ****   assert_param(IS_FLASH_BANK_EXCLUSIVE(PCROPConfig & FLASH_BANK_BOTH));
1005:Drivers/STM32L4xx_HAL_Driver/Src/stm32l4xx_hal_flash_ex.c ****   assert_param(IS_OB_PCROP_RDP(PCROPConfig & FLASH_PCROP1ER_PCROP_RDP));
1006:Drivers/STM32L4xx_HAL_Driver/Src/stm32l4xx_hal_flash_ex.c ****   assert_param(IS_FLASH_MAIN_MEM_ADDRESS(PCROPStartAddr));
1007:Drivers/STM32L4xx_HAL_Driver/Src/stm32l4xx_hal_flash_ex.c ****   assert_param(IS_FLASH_MAIN_MEM_ADDRESS(PCROPEndAddr));
1008:Drivers/STM32L4xx_HAL_Driver/Src/stm32l4xx_hal_flash_ex.c **** 
ARM GAS  /tmp/cc5sw4Du.s 			page 20


1009:Drivers/STM32L4xx_HAL_Driver/Src/stm32l4xx_hal_flash_ex.c ****   /* Wait for last operation to be completed */
1010:Drivers/STM32L4xx_HAL_Driver/Src/stm32l4xx_hal_flash_ex.c ****   status = FLASH_WaitForLastOperation((uint32_t)FLASH_TIMEOUT_VALUE);
1011:Drivers/STM32L4xx_HAL_Driver/Src/stm32l4xx_hal_flash_ex.c **** 
1012:Drivers/STM32L4xx_HAL_Driver/Src/stm32l4xx_hal_flash_ex.c ****   if(status == HAL_OK)
1013:Drivers/STM32L4xx_HAL_Driver/Src/stm32l4xx_hal_flash_ex.c ****   {
1014:Drivers/STM32L4xx_HAL_Driver/Src/stm32l4xx_hal_flash_ex.c **** #if defined (STM32L471xx) || defined (STM32L475xx) || defined (STM32L476xx) || defined (STM32L485xx
1015:Drivers/STM32L4xx_HAL_Driver/Src/stm32l4xx_hal_flash_ex.c ****     defined (STM32L496xx) || defined (STM32L4A6xx) || \
1016:Drivers/STM32L4xx_HAL_Driver/Src/stm32l4xx_hal_flash_ex.c ****     defined (STM32L4P5xx) || defined (STM32L4Q5xx) || \
1017:Drivers/STM32L4xx_HAL_Driver/Src/stm32l4xx_hal_flash_ex.c ****     defined (STM32L4R5xx) || defined (STM32L4R7xx) || defined (STM32L4R9xx) || defined (STM32L4S5xx
1018:Drivers/STM32L4xx_HAL_Driver/Src/stm32l4xx_hal_flash_ex.c ****     /* Get the information about the bank swapping */
1019:Drivers/STM32L4xx_HAL_Driver/Src/stm32l4xx_hal_flash_ex.c ****     if (READ_BIT(SYSCFG->MEMRMP, SYSCFG_MEMRMP_FB_MODE) == 0U)
1020:Drivers/STM32L4xx_HAL_Driver/Src/stm32l4xx_hal_flash_ex.c ****     {
1021:Drivers/STM32L4xx_HAL_Driver/Src/stm32l4xx_hal_flash_ex.c ****       bank1_addr = FLASH_BASE;
1022:Drivers/STM32L4xx_HAL_Driver/Src/stm32l4xx_hal_flash_ex.c ****       bank2_addr = FLASH_BASE + FLASH_BANK_SIZE;
1023:Drivers/STM32L4xx_HAL_Driver/Src/stm32l4xx_hal_flash_ex.c ****     }
1024:Drivers/STM32L4xx_HAL_Driver/Src/stm32l4xx_hal_flash_ex.c ****     else
1025:Drivers/STM32L4xx_HAL_Driver/Src/stm32l4xx_hal_flash_ex.c ****     {
1026:Drivers/STM32L4xx_HAL_Driver/Src/stm32l4xx_hal_flash_ex.c ****       bank1_addr = FLASH_BASE + FLASH_BANK_SIZE;
1027:Drivers/STM32L4xx_HAL_Driver/Src/stm32l4xx_hal_flash_ex.c ****       bank2_addr = FLASH_BASE;
1028:Drivers/STM32L4xx_HAL_Driver/Src/stm32l4xx_hal_flash_ex.c ****     }
1029:Drivers/STM32L4xx_HAL_Driver/Src/stm32l4xx_hal_flash_ex.c **** #else
1030:Drivers/STM32L4xx_HAL_Driver/Src/stm32l4xx_hal_flash_ex.c ****     bank1_addr = FLASH_BASE;
1031:Drivers/STM32L4xx_HAL_Driver/Src/stm32l4xx_hal_flash_ex.c **** #endif
1032:Drivers/STM32L4xx_HAL_Driver/Src/stm32l4xx_hal_flash_ex.c **** 
1033:Drivers/STM32L4xx_HAL_Driver/Src/stm32l4xx_hal_flash_ex.c **** #if defined (STM32L4P5xx) || defined (STM32L4Q5xx) || defined (STM32L4R5xx) || defined (STM32L4R7xx
1034:Drivers/STM32L4xx_HAL_Driver/Src/stm32l4xx_hal_flash_ex.c ****     if (READ_BIT(FLASH->OPTR, FLASH_OPTR_DBANK) == 0U)
1035:Drivers/STM32L4xx_HAL_Driver/Src/stm32l4xx_hal_flash_ex.c ****     {
1036:Drivers/STM32L4xx_HAL_Driver/Src/stm32l4xx_hal_flash_ex.c ****       /* Configure the Proprietary code readout protection */
1037:Drivers/STM32L4xx_HAL_Driver/Src/stm32l4xx_hal_flash_ex.c ****       if((PCROPConfig & FLASH_BANK_BOTH) == FLASH_BANK_1)
1038:Drivers/STM32L4xx_HAL_Driver/Src/stm32l4xx_hal_flash_ex.c ****       {
1039:Drivers/STM32L4xx_HAL_Driver/Src/stm32l4xx_hal_flash_ex.c ****         reg_value = ((PCROPStartAddr - FLASH_BASE) >> 4);
1040:Drivers/STM32L4xx_HAL_Driver/Src/stm32l4xx_hal_flash_ex.c ****         MODIFY_REG(FLASH->PCROP1SR, FLASH_PCROP1SR_PCROP1_STRT, reg_value);
1041:Drivers/STM32L4xx_HAL_Driver/Src/stm32l4xx_hal_flash_ex.c **** 
1042:Drivers/STM32L4xx_HAL_Driver/Src/stm32l4xx_hal_flash_ex.c ****         reg_value = ((PCROPEndAddr - FLASH_BASE) >> 4);
1043:Drivers/STM32L4xx_HAL_Driver/Src/stm32l4xx_hal_flash_ex.c ****         MODIFY_REG(FLASH->PCROP1ER, FLASH_PCROP1ER_PCROP1_END, reg_value);
1044:Drivers/STM32L4xx_HAL_Driver/Src/stm32l4xx_hal_flash_ex.c ****       }
1045:Drivers/STM32L4xx_HAL_Driver/Src/stm32l4xx_hal_flash_ex.c ****       else if((PCROPConfig & FLASH_BANK_BOTH) == FLASH_BANK_2)
1046:Drivers/STM32L4xx_HAL_Driver/Src/stm32l4xx_hal_flash_ex.c ****       {
1047:Drivers/STM32L4xx_HAL_Driver/Src/stm32l4xx_hal_flash_ex.c ****         reg_value = ((PCROPStartAddr - FLASH_BASE) >> 4);
1048:Drivers/STM32L4xx_HAL_Driver/Src/stm32l4xx_hal_flash_ex.c ****         MODIFY_REG(FLASH->PCROP2SR, FLASH_PCROP2SR_PCROP2_STRT, reg_value);
1049:Drivers/STM32L4xx_HAL_Driver/Src/stm32l4xx_hal_flash_ex.c **** 
1050:Drivers/STM32L4xx_HAL_Driver/Src/stm32l4xx_hal_flash_ex.c ****         reg_value = ((PCROPEndAddr - FLASH_BASE) >> 4);
1051:Drivers/STM32L4xx_HAL_Driver/Src/stm32l4xx_hal_flash_ex.c ****         MODIFY_REG(FLASH->PCROP2ER, FLASH_PCROP2ER_PCROP2_END, reg_value);
1052:Drivers/STM32L4xx_HAL_Driver/Src/stm32l4xx_hal_flash_ex.c ****       }
1053:Drivers/STM32L4xx_HAL_Driver/Src/stm32l4xx_hal_flash_ex.c ****       else
1054:Drivers/STM32L4xx_HAL_Driver/Src/stm32l4xx_hal_flash_ex.c ****       {
1055:Drivers/STM32L4xx_HAL_Driver/Src/stm32l4xx_hal_flash_ex.c ****         /* Nothing to do */
1056:Drivers/STM32L4xx_HAL_Driver/Src/stm32l4xx_hal_flash_ex.c ****       }
1057:Drivers/STM32L4xx_HAL_Driver/Src/stm32l4xx_hal_flash_ex.c ****     }
1058:Drivers/STM32L4xx_HAL_Driver/Src/stm32l4xx_hal_flash_ex.c ****     else
1059:Drivers/STM32L4xx_HAL_Driver/Src/stm32l4xx_hal_flash_ex.c **** #endif
1060:Drivers/STM32L4xx_HAL_Driver/Src/stm32l4xx_hal_flash_ex.c ****     {
1061:Drivers/STM32L4xx_HAL_Driver/Src/stm32l4xx_hal_flash_ex.c ****       /* Configure the Proprietary code readout protection */
1062:Drivers/STM32L4xx_HAL_Driver/Src/stm32l4xx_hal_flash_ex.c ****       if((PCROPConfig & FLASH_BANK_BOTH) == FLASH_BANK_1)
1063:Drivers/STM32L4xx_HAL_Driver/Src/stm32l4xx_hal_flash_ex.c ****       {
1064:Drivers/STM32L4xx_HAL_Driver/Src/stm32l4xx_hal_flash_ex.c ****         reg_value = ((PCROPStartAddr - bank1_addr) >> 3);
1065:Drivers/STM32L4xx_HAL_Driver/Src/stm32l4xx_hal_flash_ex.c ****         MODIFY_REG(FLASH->PCROP1SR, FLASH_PCROP1SR_PCROP1_STRT, reg_value);
ARM GAS  /tmp/cc5sw4Du.s 			page 21


1066:Drivers/STM32L4xx_HAL_Driver/Src/stm32l4xx_hal_flash_ex.c **** 
1067:Drivers/STM32L4xx_HAL_Driver/Src/stm32l4xx_hal_flash_ex.c ****         reg_value = ((PCROPEndAddr - bank1_addr) >> 3);
1068:Drivers/STM32L4xx_HAL_Driver/Src/stm32l4xx_hal_flash_ex.c ****         MODIFY_REG(FLASH->PCROP1ER, FLASH_PCROP1ER_PCROP1_END, reg_value);
1069:Drivers/STM32L4xx_HAL_Driver/Src/stm32l4xx_hal_flash_ex.c ****       }
1070:Drivers/STM32L4xx_HAL_Driver/Src/stm32l4xx_hal_flash_ex.c **** #if defined (STM32L471xx) || defined (STM32L475xx) || defined (STM32L476xx) || defined (STM32L485xx
1071:Drivers/STM32L4xx_HAL_Driver/Src/stm32l4xx_hal_flash_ex.c ****     defined (STM32L496xx) || defined (STM32L4A6xx) || \
1072:Drivers/STM32L4xx_HAL_Driver/Src/stm32l4xx_hal_flash_ex.c ****     defined (STM32L4P5xx) || defined (STM32L4Q5xx) || \
1073:Drivers/STM32L4xx_HAL_Driver/Src/stm32l4xx_hal_flash_ex.c ****     defined (STM32L4R5xx) || defined (STM32L4R7xx) || defined (STM32L4R9xx) || defined (STM32L4S5xx
1074:Drivers/STM32L4xx_HAL_Driver/Src/stm32l4xx_hal_flash_ex.c ****       else if((PCROPConfig & FLASH_BANK_BOTH) == FLASH_BANK_2)
1075:Drivers/STM32L4xx_HAL_Driver/Src/stm32l4xx_hal_flash_ex.c ****       {
1076:Drivers/STM32L4xx_HAL_Driver/Src/stm32l4xx_hal_flash_ex.c ****         reg_value = ((PCROPStartAddr - bank2_addr) >> 3);
1077:Drivers/STM32L4xx_HAL_Driver/Src/stm32l4xx_hal_flash_ex.c ****         MODIFY_REG(FLASH->PCROP2SR, FLASH_PCROP2SR_PCROP2_STRT, reg_value);
1078:Drivers/STM32L4xx_HAL_Driver/Src/stm32l4xx_hal_flash_ex.c **** 
1079:Drivers/STM32L4xx_HAL_Driver/Src/stm32l4xx_hal_flash_ex.c ****         reg_value = ((PCROPEndAddr - bank2_addr) >> 3);
1080:Drivers/STM32L4xx_HAL_Driver/Src/stm32l4xx_hal_flash_ex.c ****         MODIFY_REG(FLASH->PCROP2ER, FLASH_PCROP2ER_PCROP2_END, reg_value);
1081:Drivers/STM32L4xx_HAL_Driver/Src/stm32l4xx_hal_flash_ex.c ****       }
1082:Drivers/STM32L4xx_HAL_Driver/Src/stm32l4xx_hal_flash_ex.c **** #endif
1083:Drivers/STM32L4xx_HAL_Driver/Src/stm32l4xx_hal_flash_ex.c ****       else
1084:Drivers/STM32L4xx_HAL_Driver/Src/stm32l4xx_hal_flash_ex.c ****       {
1085:Drivers/STM32L4xx_HAL_Driver/Src/stm32l4xx_hal_flash_ex.c ****         /* Nothing to do */
1086:Drivers/STM32L4xx_HAL_Driver/Src/stm32l4xx_hal_flash_ex.c ****       }
1087:Drivers/STM32L4xx_HAL_Driver/Src/stm32l4xx_hal_flash_ex.c ****     }
1088:Drivers/STM32L4xx_HAL_Driver/Src/stm32l4xx_hal_flash_ex.c **** 
1089:Drivers/STM32L4xx_HAL_Driver/Src/stm32l4xx_hal_flash_ex.c ****     MODIFY_REG(FLASH->PCROP1ER, FLASH_PCROP1ER_PCROP_RDP, (PCROPConfig & FLASH_PCROP1ER_PCROP_RDP))
1090:Drivers/STM32L4xx_HAL_Driver/Src/stm32l4xx_hal_flash_ex.c **** 
1091:Drivers/STM32L4xx_HAL_Driver/Src/stm32l4xx_hal_flash_ex.c ****     /* Set OPTSTRT Bit */
1092:Drivers/STM32L4xx_HAL_Driver/Src/stm32l4xx_hal_flash_ex.c ****     SET_BIT(FLASH->CR, FLASH_CR_OPTSTRT);
1093:Drivers/STM32L4xx_HAL_Driver/Src/stm32l4xx_hal_flash_ex.c **** 
1094:Drivers/STM32L4xx_HAL_Driver/Src/stm32l4xx_hal_flash_ex.c ****     /* Wait for last operation to be completed */
1095:Drivers/STM32L4xx_HAL_Driver/Src/stm32l4xx_hal_flash_ex.c ****     status = FLASH_WaitForLastOperation((uint32_t)FLASH_TIMEOUT_VALUE);
1096:Drivers/STM32L4xx_HAL_Driver/Src/stm32l4xx_hal_flash_ex.c **** 
1097:Drivers/STM32L4xx_HAL_Driver/Src/stm32l4xx_hal_flash_ex.c ****     /* If the option byte program operation is completed, disable the OPTSTRT Bit */
1098:Drivers/STM32L4xx_HAL_Driver/Src/stm32l4xx_hal_flash_ex.c ****     CLEAR_BIT(FLASH->CR, FLASH_CR_OPTSTRT);
1099:Drivers/STM32L4xx_HAL_Driver/Src/stm32l4xx_hal_flash_ex.c ****   }
1100:Drivers/STM32L4xx_HAL_Driver/Src/stm32l4xx_hal_flash_ex.c **** 
1101:Drivers/STM32L4xx_HAL_Driver/Src/stm32l4xx_hal_flash_ex.c ****   return status;
1102:Drivers/STM32L4xx_HAL_Driver/Src/stm32l4xx_hal_flash_ex.c **** }
1103:Drivers/STM32L4xx_HAL_Driver/Src/stm32l4xx_hal_flash_ex.c **** 
1104:Drivers/STM32L4xx_HAL_Driver/Src/stm32l4xx_hal_flash_ex.c **** /**
1105:Drivers/STM32L4xx_HAL_Driver/Src/stm32l4xx_hal_flash_ex.c ****   * @brief  Return the FLASH Write Protection Option Bytes value.
1106:Drivers/STM32L4xx_HAL_Driver/Src/stm32l4xx_hal_flash_ex.c ****   *
1107:Drivers/STM32L4xx_HAL_Driver/Src/stm32l4xx_hal_flash_ex.c ****   * @param[in]  WRPArea: specifies the area to be returned.
1108:Drivers/STM32L4xx_HAL_Driver/Src/stm32l4xx_hal_flash_ex.c ****   *          This parameter can be one of the following values:
1109:Drivers/STM32L4xx_HAL_Driver/Src/stm32l4xx_hal_flash_ex.c ****   *            @arg OB_WRPAREA_BANK1_AREAA: Flash Bank 1 Area A
1110:Drivers/STM32L4xx_HAL_Driver/Src/stm32l4xx_hal_flash_ex.c ****   *            @arg OB_WRPAREA_BANK1_AREAB: Flash Bank 1 Area B
1111:Drivers/STM32L4xx_HAL_Driver/Src/stm32l4xx_hal_flash_ex.c ****   *            @arg OB_WRPAREA_BANK2_AREAA: Flash Bank 2 Area A (don't apply to STM32L43x/STM32L44x
1112:Drivers/STM32L4xx_HAL_Driver/Src/stm32l4xx_hal_flash_ex.c ****   *            @arg OB_WRPAREA_BANK2_AREAB: Flash Bank 2 Area B (don't apply to STM32L43x/STM32L44x
1113:Drivers/STM32L4xx_HAL_Driver/Src/stm32l4xx_hal_flash_ex.c ****   *
1114:Drivers/STM32L4xx_HAL_Driver/Src/stm32l4xx_hal_flash_ex.c ****   * @param[out]  WRPStartOffset: specifies the address where to copied the start page
1115:Drivers/STM32L4xx_HAL_Driver/Src/stm32l4xx_hal_flash_ex.c ****   *                         of the write protected area
1116:Drivers/STM32L4xx_HAL_Driver/Src/stm32l4xx_hal_flash_ex.c ****   *
1117:Drivers/STM32L4xx_HAL_Driver/Src/stm32l4xx_hal_flash_ex.c ****   * @param[out]  WRDPEndOffset: specifies the address where to copied the end page of
1118:Drivers/STM32L4xx_HAL_Driver/Src/stm32l4xx_hal_flash_ex.c ****   *                        the write protected area
1119:Drivers/STM32L4xx_HAL_Driver/Src/stm32l4xx_hal_flash_ex.c ****   *
1120:Drivers/STM32L4xx_HAL_Driver/Src/stm32l4xx_hal_flash_ex.c ****   * @retval None
1121:Drivers/STM32L4xx_HAL_Driver/Src/stm32l4xx_hal_flash_ex.c ****   */
1122:Drivers/STM32L4xx_HAL_Driver/Src/stm32l4xx_hal_flash_ex.c **** static void FLASH_OB_GetWRP(uint32_t WRPArea, uint32_t * WRPStartOffset, uint32_t * WRDPEndOffset)
ARM GAS  /tmp/cc5sw4Du.s 			page 22


1123:Drivers/STM32L4xx_HAL_Driver/Src/stm32l4xx_hal_flash_ex.c **** {
  79              		.loc 1 1123 1 is_stmt 1 view -0
  80              		.cfi_startproc
  81              		@ args = 0, pretend = 0, frame = 0
  82              		@ frame_needed = 0, uses_anonymous_args = 0
  83              		@ link register save eliminated.
1124:Drivers/STM32L4xx_HAL_Driver/Src/stm32l4xx_hal_flash_ex.c ****   /* Get the configuration of the write protected area */
1125:Drivers/STM32L4xx_HAL_Driver/Src/stm32l4xx_hal_flash_ex.c ****   if(WRPArea == OB_WRPAREA_BANK1_AREAA)
  84              		.loc 1 1125 3 view .LVU11
  85              		.loc 1 1125 5 is_stmt 0 view .LVU12
  86 0000 40B9     		cbnz	r0, .L7
1126:Drivers/STM32L4xx_HAL_Driver/Src/stm32l4xx_hal_flash_ex.c ****   {
1127:Drivers/STM32L4xx_HAL_Driver/Src/stm32l4xx_hal_flash_ex.c ****     *WRPStartOffset = READ_BIT(FLASH->WRP1AR, FLASH_WRP1AR_WRP1A_STRT);
  87              		.loc 1 1127 5 is_stmt 1 view .LVU13
  88              		.loc 1 1127 23 is_stmt 0 view .LVU14
  89 0002 1548     		ldr	r0, .L14
  90              	.LVL2:
  91              		.loc 1 1127 23 view .LVU15
  92 0004 C36A     		ldr	r3, [r0, #44]
  93 0006 DBB2     		uxtb	r3, r3
  94              		.loc 1 1127 21 view .LVU16
  95 0008 0B60     		str	r3, [r1]
1128:Drivers/STM32L4xx_HAL_Driver/Src/stm32l4xx_hal_flash_ex.c ****     *WRDPEndOffset = (READ_BIT(FLASH->WRP1AR, FLASH_WRP1AR_WRP1A_END) >> 16);
  96              		.loc 1 1128 5 is_stmt 1 view .LVU17
  97              		.loc 1 1128 23 is_stmt 0 view .LVU18
  98 000a C36A     		ldr	r3, [r0, #44]
  99              		.loc 1 1128 71 view .LVU19
 100 000c C3F30743 		ubfx	r3, r3, #16, #8
 101              		.loc 1 1128 20 view .LVU20
 102 0010 1360     		str	r3, [r2]
 103 0012 7047     		bx	lr
 104              	.LVL3:
 105              	.L7:
1129:Drivers/STM32L4xx_HAL_Driver/Src/stm32l4xx_hal_flash_ex.c ****   }
1130:Drivers/STM32L4xx_HAL_Driver/Src/stm32l4xx_hal_flash_ex.c ****   else if(WRPArea == OB_WRPAREA_BANK1_AREAB)
 106              		.loc 1 1130 8 is_stmt 1 view .LVU21
 107              		.loc 1 1130 10 is_stmt 0 view .LVU22
 108 0014 0128     		cmp	r0, #1
 109 0016 04D0     		beq	.L11
1131:Drivers/STM32L4xx_HAL_Driver/Src/stm32l4xx_hal_flash_ex.c ****   {
1132:Drivers/STM32L4xx_HAL_Driver/Src/stm32l4xx_hal_flash_ex.c ****     *WRPStartOffset = READ_BIT(FLASH->WRP1BR, FLASH_WRP1BR_WRP1B_STRT);
1133:Drivers/STM32L4xx_HAL_Driver/Src/stm32l4xx_hal_flash_ex.c ****     *WRDPEndOffset = (READ_BIT(FLASH->WRP1BR, FLASH_WRP1BR_WRP1B_END) >> 16);
1134:Drivers/STM32L4xx_HAL_Driver/Src/stm32l4xx_hal_flash_ex.c ****   }
1135:Drivers/STM32L4xx_HAL_Driver/Src/stm32l4xx_hal_flash_ex.c **** #if defined (STM32L471xx) || defined (STM32L475xx) || defined (STM32L476xx) || defined (STM32L485xx
1136:Drivers/STM32L4xx_HAL_Driver/Src/stm32l4xx_hal_flash_ex.c ****     defined (STM32L496xx) || defined (STM32L4A6xx) || \
1137:Drivers/STM32L4xx_HAL_Driver/Src/stm32l4xx_hal_flash_ex.c ****     defined (STM32L4P5xx) || defined (STM32L4Q5xx) || \
1138:Drivers/STM32L4xx_HAL_Driver/Src/stm32l4xx_hal_flash_ex.c ****     defined (STM32L4R5xx) || defined (STM32L4R7xx) || defined (STM32L4R9xx) || defined (STM32L4S5xx
1139:Drivers/STM32L4xx_HAL_Driver/Src/stm32l4xx_hal_flash_ex.c ****   else if(WRPArea == OB_WRPAREA_BANK2_AREAA)
 110              		.loc 1 1139 8 is_stmt 1 view .LVU23
 111              		.loc 1 1139 10 is_stmt 0 view .LVU24
 112 0018 0228     		cmp	r0, #2
 113 001a 0BD0     		beq	.L12
1140:Drivers/STM32L4xx_HAL_Driver/Src/stm32l4xx_hal_flash_ex.c ****   {
1141:Drivers/STM32L4xx_HAL_Driver/Src/stm32l4xx_hal_flash_ex.c ****     *WRPStartOffset = READ_BIT(FLASH->WRP2AR, FLASH_WRP2AR_WRP2A_STRT);
1142:Drivers/STM32L4xx_HAL_Driver/Src/stm32l4xx_hal_flash_ex.c ****     *WRDPEndOffset = (READ_BIT(FLASH->WRP2AR, FLASH_WRP2AR_WRP2A_END) >> 16);
1143:Drivers/STM32L4xx_HAL_Driver/Src/stm32l4xx_hal_flash_ex.c ****   }
1144:Drivers/STM32L4xx_HAL_Driver/Src/stm32l4xx_hal_flash_ex.c ****   else if(WRPArea == OB_WRPAREA_BANK2_AREAB)
ARM GAS  /tmp/cc5sw4Du.s 			page 23


 114              		.loc 1 1144 8 is_stmt 1 view .LVU25
 115              		.loc 1 1144 10 is_stmt 0 view .LVU26
 116 001c 0428     		cmp	r0, #4
 117 001e 12D0     		beq	.L13
 118              	.LVL4:
 119              	.L6:
1145:Drivers/STM32L4xx_HAL_Driver/Src/stm32l4xx_hal_flash_ex.c ****   {
1146:Drivers/STM32L4xx_HAL_Driver/Src/stm32l4xx_hal_flash_ex.c ****     *WRPStartOffset = READ_BIT(FLASH->WRP2BR, FLASH_WRP2BR_WRP2B_STRT);
1147:Drivers/STM32L4xx_HAL_Driver/Src/stm32l4xx_hal_flash_ex.c ****     *WRDPEndOffset = (READ_BIT(FLASH->WRP2BR, FLASH_WRP2BR_WRP2B_END) >> 16);
1148:Drivers/STM32L4xx_HAL_Driver/Src/stm32l4xx_hal_flash_ex.c ****   }
1149:Drivers/STM32L4xx_HAL_Driver/Src/stm32l4xx_hal_flash_ex.c **** #endif
1150:Drivers/STM32L4xx_HAL_Driver/Src/stm32l4xx_hal_flash_ex.c ****   else
1151:Drivers/STM32L4xx_HAL_Driver/Src/stm32l4xx_hal_flash_ex.c ****   {
1152:Drivers/STM32L4xx_HAL_Driver/Src/stm32l4xx_hal_flash_ex.c ****     /* Nothing to do */
1153:Drivers/STM32L4xx_HAL_Driver/Src/stm32l4xx_hal_flash_ex.c ****   }
1154:Drivers/STM32L4xx_HAL_Driver/Src/stm32l4xx_hal_flash_ex.c **** }
 120              		.loc 1 1154 1 view .LVU27
 121 0020 7047     		bx	lr
 122              	.LVL5:
 123              	.L11:
1132:Drivers/STM32L4xx_HAL_Driver/Src/stm32l4xx_hal_flash_ex.c ****     *WRDPEndOffset = (READ_BIT(FLASH->WRP1BR, FLASH_WRP1BR_WRP1B_END) >> 16);
 124              		.loc 1 1132 5 is_stmt 1 view .LVU28
1132:Drivers/STM32L4xx_HAL_Driver/Src/stm32l4xx_hal_flash_ex.c ****     *WRDPEndOffset = (READ_BIT(FLASH->WRP1BR, FLASH_WRP1BR_WRP1B_END) >> 16);
 125              		.loc 1 1132 23 is_stmt 0 view .LVU29
 126 0022 0D48     		ldr	r0, .L14
 127              	.LVL6:
1132:Drivers/STM32L4xx_HAL_Driver/Src/stm32l4xx_hal_flash_ex.c ****     *WRDPEndOffset = (READ_BIT(FLASH->WRP1BR, FLASH_WRP1BR_WRP1B_END) >> 16);
 128              		.loc 1 1132 23 view .LVU30
 129 0024 036B     		ldr	r3, [r0, #48]
 130 0026 DBB2     		uxtb	r3, r3
1132:Drivers/STM32L4xx_HAL_Driver/Src/stm32l4xx_hal_flash_ex.c ****     *WRDPEndOffset = (READ_BIT(FLASH->WRP1BR, FLASH_WRP1BR_WRP1B_END) >> 16);
 131              		.loc 1 1132 21 view .LVU31
 132 0028 0B60     		str	r3, [r1]
1133:Drivers/STM32L4xx_HAL_Driver/Src/stm32l4xx_hal_flash_ex.c ****   }
 133              		.loc 1 1133 5 is_stmt 1 view .LVU32
1133:Drivers/STM32L4xx_HAL_Driver/Src/stm32l4xx_hal_flash_ex.c ****   }
 134              		.loc 1 1133 23 is_stmt 0 view .LVU33
 135 002a 036B     		ldr	r3, [r0, #48]
1133:Drivers/STM32L4xx_HAL_Driver/Src/stm32l4xx_hal_flash_ex.c ****   }
 136              		.loc 1 1133 71 view .LVU34
 137 002c C3F30743 		ubfx	r3, r3, #16, #8
1133:Drivers/STM32L4xx_HAL_Driver/Src/stm32l4xx_hal_flash_ex.c ****   }
 138              		.loc 1 1133 20 view .LVU35
 139 0030 1360     		str	r3, [r2]
 140 0032 7047     		bx	lr
 141              	.LVL7:
 142              	.L12:
1141:Drivers/STM32L4xx_HAL_Driver/Src/stm32l4xx_hal_flash_ex.c ****     *WRDPEndOffset = (READ_BIT(FLASH->WRP2AR, FLASH_WRP2AR_WRP2A_END) >> 16);
 143              		.loc 1 1141 5 is_stmt 1 view .LVU36
1141:Drivers/STM32L4xx_HAL_Driver/Src/stm32l4xx_hal_flash_ex.c ****     *WRDPEndOffset = (READ_BIT(FLASH->WRP2AR, FLASH_WRP2AR_WRP2A_END) >> 16);
 144              		.loc 1 1141 23 is_stmt 0 view .LVU37
 145 0034 0848     		ldr	r0, .L14
 146              	.LVL8:
1141:Drivers/STM32L4xx_HAL_Driver/Src/stm32l4xx_hal_flash_ex.c ****     *WRDPEndOffset = (READ_BIT(FLASH->WRP2AR, FLASH_WRP2AR_WRP2A_END) >> 16);
 147              		.loc 1 1141 23 view .LVU38
 148 0036 C36C     		ldr	r3, [r0, #76]
 149 0038 DBB2     		uxtb	r3, r3
ARM GAS  /tmp/cc5sw4Du.s 			page 24


1141:Drivers/STM32L4xx_HAL_Driver/Src/stm32l4xx_hal_flash_ex.c ****     *WRDPEndOffset = (READ_BIT(FLASH->WRP2AR, FLASH_WRP2AR_WRP2A_END) >> 16);
 150              		.loc 1 1141 21 view .LVU39
 151 003a 0B60     		str	r3, [r1]
1142:Drivers/STM32L4xx_HAL_Driver/Src/stm32l4xx_hal_flash_ex.c ****   }
 152              		.loc 1 1142 5 is_stmt 1 view .LVU40
1142:Drivers/STM32L4xx_HAL_Driver/Src/stm32l4xx_hal_flash_ex.c ****   }
 153              		.loc 1 1142 23 is_stmt 0 view .LVU41
 154 003c C36C     		ldr	r3, [r0, #76]
1142:Drivers/STM32L4xx_HAL_Driver/Src/stm32l4xx_hal_flash_ex.c ****   }
 155              		.loc 1 1142 71 view .LVU42
 156 003e C3F30743 		ubfx	r3, r3, #16, #8
1142:Drivers/STM32L4xx_HAL_Driver/Src/stm32l4xx_hal_flash_ex.c ****   }
 157              		.loc 1 1142 20 view .LVU43
 158 0042 1360     		str	r3, [r2]
 159 0044 7047     		bx	lr
 160              	.LVL9:
 161              	.L13:
1146:Drivers/STM32L4xx_HAL_Driver/Src/stm32l4xx_hal_flash_ex.c ****     *WRDPEndOffset = (READ_BIT(FLASH->WRP2BR, FLASH_WRP2BR_WRP2B_END) >> 16);
 162              		.loc 1 1146 5 is_stmt 1 view .LVU44
1146:Drivers/STM32L4xx_HAL_Driver/Src/stm32l4xx_hal_flash_ex.c ****     *WRDPEndOffset = (READ_BIT(FLASH->WRP2BR, FLASH_WRP2BR_WRP2B_END) >> 16);
 163              		.loc 1 1146 23 is_stmt 0 view .LVU45
 164 0046 0448     		ldr	r0, .L14
 165              	.LVL10:
1146:Drivers/STM32L4xx_HAL_Driver/Src/stm32l4xx_hal_flash_ex.c ****     *WRDPEndOffset = (READ_BIT(FLASH->WRP2BR, FLASH_WRP2BR_WRP2B_END) >> 16);
 166              		.loc 1 1146 23 view .LVU46
 167 0048 036D     		ldr	r3, [r0, #80]
 168 004a DBB2     		uxtb	r3, r3
1146:Drivers/STM32L4xx_HAL_Driver/Src/stm32l4xx_hal_flash_ex.c ****     *WRDPEndOffset = (READ_BIT(FLASH->WRP2BR, FLASH_WRP2BR_WRP2B_END) >> 16);
 169              		.loc 1 1146 21 view .LVU47
 170 004c 0B60     		str	r3, [r1]
1147:Drivers/STM32L4xx_HAL_Driver/Src/stm32l4xx_hal_flash_ex.c ****   }
 171              		.loc 1 1147 5 is_stmt 1 view .LVU48
1147:Drivers/STM32L4xx_HAL_Driver/Src/stm32l4xx_hal_flash_ex.c ****   }
 172              		.loc 1 1147 23 is_stmt 0 view .LVU49
 173 004e 036D     		ldr	r3, [r0, #80]
1147:Drivers/STM32L4xx_HAL_Driver/Src/stm32l4xx_hal_flash_ex.c ****   }
 174              		.loc 1 1147 71 view .LVU50
 175 0050 C3F30743 		ubfx	r3, r3, #16, #8
1147:Drivers/STM32L4xx_HAL_Driver/Src/stm32l4xx_hal_flash_ex.c ****   }
 176              		.loc 1 1147 20 view .LVU51
 177 0054 1360     		str	r3, [r2]
1153:Drivers/STM32L4xx_HAL_Driver/Src/stm32l4xx_hal_flash_ex.c **** }
 178              		.loc 1 1153 3 is_stmt 1 view .LVU52
 179              		.loc 1 1154 1 is_stmt 0 view .LVU53
 180 0056 E3E7     		b	.L6
 181              	.L15:
 182              		.align	2
 183              	.L14:
 184 0058 00200240 		.word	1073881088
 185              		.cfi_endproc
 186              	.LFE328:
 188              		.section	.text.FLASH_OB_GetRDP,"ax",%progbits
 189              		.align	1
 190              		.syntax unified
 191              		.thumb
 192              		.thumb_func
 193              		.fpu fpv4-sp-d16
ARM GAS  /tmp/cc5sw4Du.s 			page 25


 195              	FLASH_OB_GetRDP:
 196              	.LFB329:
1155:Drivers/STM32L4xx_HAL_Driver/Src/stm32l4xx_hal_flash_ex.c **** 
1156:Drivers/STM32L4xx_HAL_Driver/Src/stm32l4xx_hal_flash_ex.c **** /**
1157:Drivers/STM32L4xx_HAL_Driver/Src/stm32l4xx_hal_flash_ex.c ****   * @brief  Return the FLASH Read Protection level.
1158:Drivers/STM32L4xx_HAL_Driver/Src/stm32l4xx_hal_flash_ex.c ****   * @retval FLASH ReadOut Protection Status:
1159:Drivers/STM32L4xx_HAL_Driver/Src/stm32l4xx_hal_flash_ex.c ****   *         This return value can be one of the following values:
1160:Drivers/STM32L4xx_HAL_Driver/Src/stm32l4xx_hal_flash_ex.c ****   *            @arg OB_RDP_LEVEL_0: No protection
1161:Drivers/STM32L4xx_HAL_Driver/Src/stm32l4xx_hal_flash_ex.c ****   *            @arg OB_RDP_LEVEL_1: Read protection of the memory
1162:Drivers/STM32L4xx_HAL_Driver/Src/stm32l4xx_hal_flash_ex.c ****   *            @arg OB_RDP_LEVEL_2: Full chip protection
1163:Drivers/STM32L4xx_HAL_Driver/Src/stm32l4xx_hal_flash_ex.c ****   */
1164:Drivers/STM32L4xx_HAL_Driver/Src/stm32l4xx_hal_flash_ex.c **** static uint32_t FLASH_OB_GetRDP(void)
1165:Drivers/STM32L4xx_HAL_Driver/Src/stm32l4xx_hal_flash_ex.c **** {
 197              		.loc 1 1165 1 is_stmt 1 view -0
 198              		.cfi_startproc
 199              		@ args = 0, pretend = 0, frame = 0
 200              		@ frame_needed = 0, uses_anonymous_args = 0
 201              		@ link register save eliminated.
1166:Drivers/STM32L4xx_HAL_Driver/Src/stm32l4xx_hal_flash_ex.c ****   uint32_t rdp_level = READ_BIT(FLASH->OPTR, FLASH_OPTR_RDP);
 202              		.loc 1 1166 3 view .LVU55
 203              		.loc 1 1166 24 is_stmt 0 view .LVU56
 204 0000 064B     		ldr	r3, .L20
 205 0002 1B6A     		ldr	r3, [r3, #32]
 206              		.loc 1 1166 12 view .LVU57
 207 0004 DBB2     		uxtb	r3, r3
 208              	.LVL11:
1167:Drivers/STM32L4xx_HAL_Driver/Src/stm32l4xx_hal_flash_ex.c **** 
1168:Drivers/STM32L4xx_HAL_Driver/Src/stm32l4xx_hal_flash_ex.c ****   if ((rdp_level != OB_RDP_LEVEL_0) && (rdp_level != OB_RDP_LEVEL_2))
 209              		.loc 1 1168 3 is_stmt 1 view .LVU58
 210              		.loc 1 1168 6 is_stmt 0 view .LVU59
 211 0006 AA2B     		cmp	r3, #170
 212 0008 03D0     		beq	.L17
 213              		.loc 1 1168 37 discriminator 1 view .LVU60
 214 000a CC2B     		cmp	r3, #204
 215 000c 01D0     		beq	.L17
1169:Drivers/STM32L4xx_HAL_Driver/Src/stm32l4xx_hal_flash_ex.c ****   {
1170:Drivers/STM32L4xx_HAL_Driver/Src/stm32l4xx_hal_flash_ex.c ****     return (OB_RDP_LEVEL_1);
 216              		.loc 1 1170 12 view .LVU61
 217 000e BB20     		movs	r0, #187
1171:Drivers/STM32L4xx_HAL_Driver/Src/stm32l4xx_hal_flash_ex.c ****   }
1172:Drivers/STM32L4xx_HAL_Driver/Src/stm32l4xx_hal_flash_ex.c ****   else
1173:Drivers/STM32L4xx_HAL_Driver/Src/stm32l4xx_hal_flash_ex.c ****   {
1174:Drivers/STM32L4xx_HAL_Driver/Src/stm32l4xx_hal_flash_ex.c ****     return (READ_BIT(FLASH->OPTR, FLASH_OPTR_RDP));
1175:Drivers/STM32L4xx_HAL_Driver/Src/stm32l4xx_hal_flash_ex.c ****   }
1176:Drivers/STM32L4xx_HAL_Driver/Src/stm32l4xx_hal_flash_ex.c **** }
 218              		.loc 1 1176 1 view .LVU62
 219 0010 7047     		bx	lr
 220              	.L17:
1174:Drivers/STM32L4xx_HAL_Driver/Src/stm32l4xx_hal_flash_ex.c ****   }
 221              		.loc 1 1174 5 is_stmt 1 view .LVU63
1174:Drivers/STM32L4xx_HAL_Driver/Src/stm32l4xx_hal_flash_ex.c ****   }
 222              		.loc 1 1174 13 is_stmt 0 view .LVU64
 223 0012 024B     		ldr	r3, .L20
 224              	.LVL12:
1174:Drivers/STM32L4xx_HAL_Driver/Src/stm32l4xx_hal_flash_ex.c ****   }
 225              		.loc 1 1174 13 view .LVU65
 226 0014 186A     		ldr	r0, [r3, #32]
ARM GAS  /tmp/cc5sw4Du.s 			page 26


 227 0016 C0B2     		uxtb	r0, r0
 228 0018 7047     		bx	lr
 229              	.L21:
 230 001a 00BF     		.align	2
 231              	.L20:
 232 001c 00200240 		.word	1073881088
 233              		.cfi_endproc
 234              	.LFE329:
 236              		.section	.text.FLASH_OB_GetUser,"ax",%progbits
 237              		.align	1
 238              		.syntax unified
 239              		.thumb
 240              		.thumb_func
 241              		.fpu fpv4-sp-d16
 243              	FLASH_OB_GetUser:
 244              	.LFB330:
1177:Drivers/STM32L4xx_HAL_Driver/Src/stm32l4xx_hal_flash_ex.c **** 
1178:Drivers/STM32L4xx_HAL_Driver/Src/stm32l4xx_hal_flash_ex.c **** /**
1179:Drivers/STM32L4xx_HAL_Driver/Src/stm32l4xx_hal_flash_ex.c ****   * @brief  Return the FLASH User Option Byte value.
1180:Drivers/STM32L4xx_HAL_Driver/Src/stm32l4xx_hal_flash_ex.c ****   * @retval The FLASH User Option Bytes values:
1181:Drivers/STM32L4xx_HAL_Driver/Src/stm32l4xx_hal_flash_ex.c ****   *      For STM32L47x/STM32L48x devices :
1182:Drivers/STM32L4xx_HAL_Driver/Src/stm32l4xx_hal_flash_ex.c ****   *         BOR_LEV(Bit8-10), nRST_STOP(Bit12), nRST_STDBY(Bit13), nRST_SHDW(Bit14),
1183:Drivers/STM32L4xx_HAL_Driver/Src/stm32l4xx_hal_flash_ex.c ****   *         IWDG_SW(Bit16), IWDG_STOP(Bit17), IWDG_STDBY(Bit18), WWDG_SW(Bit19),
1184:Drivers/STM32L4xx_HAL_Driver/Src/stm32l4xx_hal_flash_ex.c ****   *         BFB2(Bit20), DUALBANK(Bit21), nBOOT1(Bit23), SRAM2_PE(Bit24) and SRAM2_RST(Bit25).
1185:Drivers/STM32L4xx_HAL_Driver/Src/stm32l4xx_hal_flash_ex.c ****   *      For STM32L43x/STM32L44x devices :
1186:Drivers/STM32L4xx_HAL_Driver/Src/stm32l4xx_hal_flash_ex.c ****   *         BOR_LEV(Bit8-10), nRST_STOP(Bit12), nRST_STDBY(Bit13), nRST_SHDW(Bit14),
1187:Drivers/STM32L4xx_HAL_Driver/Src/stm32l4xx_hal_flash_ex.c ****   *         IWDG_SW(Bit16), IWDG_STOP(Bit17), IWDG_STDBY(Bit18), WWDG_SW(Bit19),
1188:Drivers/STM32L4xx_HAL_Driver/Src/stm32l4xx_hal_flash_ex.c ****   *         nBOOT1(Bit23), SRAM2_PE(Bit24), SRAM2_RST(Bit25), nSWBOOT0(Bit26) and nBOOT0(Bit27).
1189:Drivers/STM32L4xx_HAL_Driver/Src/stm32l4xx_hal_flash_ex.c ****   */
1190:Drivers/STM32L4xx_HAL_Driver/Src/stm32l4xx_hal_flash_ex.c **** static uint32_t FLASH_OB_GetUser(void)
1191:Drivers/STM32L4xx_HAL_Driver/Src/stm32l4xx_hal_flash_ex.c **** {
 245              		.loc 1 1191 1 is_stmt 1 view -0
 246              		.cfi_startproc
 247              		@ args = 0, pretend = 0, frame = 0
 248              		@ frame_needed = 0, uses_anonymous_args = 0
 249              		@ link register save eliminated.
1192:Drivers/STM32L4xx_HAL_Driver/Src/stm32l4xx_hal_flash_ex.c ****   uint32_t user_config = READ_REG(FLASH->OPTR);
 250              		.loc 1 1192 3 view .LVU67
 251              		.loc 1 1192 12 is_stmt 0 view .LVU68
 252 0000 024B     		ldr	r3, .L23
 253 0002 186A     		ldr	r0, [r3, #32]
 254              	.LVL13:
1193:Drivers/STM32L4xx_HAL_Driver/Src/stm32l4xx_hal_flash_ex.c ****   CLEAR_BIT(user_config, FLASH_OPTR_RDP);
 255              		.loc 1 1193 3 is_stmt 1 view .LVU69
1194:Drivers/STM32L4xx_HAL_Driver/Src/stm32l4xx_hal_flash_ex.c **** 
1195:Drivers/STM32L4xx_HAL_Driver/Src/stm32l4xx_hal_flash_ex.c ****   return user_config;
 256              		.loc 1 1195 3 view .LVU70
1196:Drivers/STM32L4xx_HAL_Driver/Src/stm32l4xx_hal_flash_ex.c **** }
 257              		.loc 1 1196 1 is_stmt 0 view .LVU71
 258 0004 20F0FF00 		bic	r0, r0, #255
 259              	.LVL14:
 260              		.loc 1 1196 1 view .LVU72
 261 0008 7047     		bx	lr
 262              	.L24:
 263 000a 00BF     		.align	2
 264              	.L23:
 265 000c 00200240 		.word	1073881088
ARM GAS  /tmp/cc5sw4Du.s 			page 27


 266              		.cfi_endproc
 267              	.LFE330:
 269              		.section	.text.FLASH_OB_GetPCROP,"ax",%progbits
 270              		.align	1
 271              		.syntax unified
 272              		.thumb
 273              		.thumb_func
 274              		.fpu fpv4-sp-d16
 276              	FLASH_OB_GetPCROP:
 277              	.LVL15:
 278              	.LFB331:
1197:Drivers/STM32L4xx_HAL_Driver/Src/stm32l4xx_hal_flash_ex.c **** 
1198:Drivers/STM32L4xx_HAL_Driver/Src/stm32l4xx_hal_flash_ex.c **** /**
1199:Drivers/STM32L4xx_HAL_Driver/Src/stm32l4xx_hal_flash_ex.c ****   * @brief  Return the FLASH Write Protection Option Bytes value.
1200:Drivers/STM32L4xx_HAL_Driver/Src/stm32l4xx_hal_flash_ex.c ****   *
1201:Drivers/STM32L4xx_HAL_Driver/Src/stm32l4xx_hal_flash_ex.c ****   * @param PCROPConfig [inout]: specifies the configuration (Bank to be configured and PCROP_RDP op
1202:Drivers/STM32L4xx_HAL_Driver/Src/stm32l4xx_hal_flash_ex.c ****   *          This parameter must be a combination of FLASH_BANK_1 or FLASH_BANK_2
1203:Drivers/STM32L4xx_HAL_Driver/Src/stm32l4xx_hal_flash_ex.c ****   *          with OB_PCROP_RDP_NOT_ERASE or OB_PCROP_RDP_ERASE
1204:Drivers/STM32L4xx_HAL_Driver/Src/stm32l4xx_hal_flash_ex.c ****   *
1205:Drivers/STM32L4xx_HAL_Driver/Src/stm32l4xx_hal_flash_ex.c ****   * @param PCROPStartAddr [out]: specifies the address where to copied the start address
1206:Drivers/STM32L4xx_HAL_Driver/Src/stm32l4xx_hal_flash_ex.c ****   *                         of the Proprietary code readout protection
1207:Drivers/STM32L4xx_HAL_Driver/Src/stm32l4xx_hal_flash_ex.c ****   *
1208:Drivers/STM32L4xx_HAL_Driver/Src/stm32l4xx_hal_flash_ex.c ****   * @param PCROPEndAddr [out]: specifies the address where to copied the end address of
1209:Drivers/STM32L4xx_HAL_Driver/Src/stm32l4xx_hal_flash_ex.c ****   *                       the Proprietary code readout protection
1210:Drivers/STM32L4xx_HAL_Driver/Src/stm32l4xx_hal_flash_ex.c ****   *
1211:Drivers/STM32L4xx_HAL_Driver/Src/stm32l4xx_hal_flash_ex.c ****   * @retval None
1212:Drivers/STM32L4xx_HAL_Driver/Src/stm32l4xx_hal_flash_ex.c ****   */
1213:Drivers/STM32L4xx_HAL_Driver/Src/stm32l4xx_hal_flash_ex.c **** static void FLASH_OB_GetPCROP(uint32_t * PCROPConfig, uint32_t * PCROPStartAddr, uint32_t * PCROPEn
1214:Drivers/STM32L4xx_HAL_Driver/Src/stm32l4xx_hal_flash_ex.c **** {
 279              		.loc 1 1214 1 is_stmt 1 view -0
 280              		.cfi_startproc
 281              		@ args = 0, pretend = 0, frame = 0
 282              		@ frame_needed = 0, uses_anonymous_args = 0
 283              		@ link register save eliminated.
 284              		.loc 1 1214 1 is_stmt 0 view .LVU74
 285 0000 70B4     		push	{r4, r5, r6}
 286              		.cfi_def_cfa_offset 12
 287              		.cfi_offset 4, -12
 288              		.cfi_offset 5, -8
 289              		.cfi_offset 6, -4
1215:Drivers/STM32L4xx_HAL_Driver/Src/stm32l4xx_hal_flash_ex.c ****   uint32_t reg_value;
 290              		.loc 1 1215 3 is_stmt 1 view .LVU75
1216:Drivers/STM32L4xx_HAL_Driver/Src/stm32l4xx_hal_flash_ex.c ****   uint32_t bank1_addr;
 291              		.loc 1 1216 3 view .LVU76
1217:Drivers/STM32L4xx_HAL_Driver/Src/stm32l4xx_hal_flash_ex.c **** #if defined (STM32L471xx) || defined (STM32L475xx) || defined (STM32L476xx) || defined (STM32L485xx
1218:Drivers/STM32L4xx_HAL_Driver/Src/stm32l4xx_hal_flash_ex.c ****     defined (STM32L496xx) || defined (STM32L4A6xx) || \
1219:Drivers/STM32L4xx_HAL_Driver/Src/stm32l4xx_hal_flash_ex.c ****     defined (STM32L4P5xx) || defined (STM32L4Q5xx) || \
1220:Drivers/STM32L4xx_HAL_Driver/Src/stm32l4xx_hal_flash_ex.c ****     defined (STM32L4R5xx) || defined (STM32L4R7xx) || defined (STM32L4R9xx) || defined (STM32L4S5xx
1221:Drivers/STM32L4xx_HAL_Driver/Src/stm32l4xx_hal_flash_ex.c ****   uint32_t bank2_addr;
 292              		.loc 1 1221 3 view .LVU77
1222:Drivers/STM32L4xx_HAL_Driver/Src/stm32l4xx_hal_flash_ex.c **** #endif
1223:Drivers/STM32L4xx_HAL_Driver/Src/stm32l4xx_hal_flash_ex.c **** 
1224:Drivers/STM32L4xx_HAL_Driver/Src/stm32l4xx_hal_flash_ex.c **** #if defined (STM32L471xx) || defined (STM32L475xx) || defined (STM32L476xx) || defined (STM32L485xx
1225:Drivers/STM32L4xx_HAL_Driver/Src/stm32l4xx_hal_flash_ex.c ****     defined (STM32L496xx) || defined (STM32L4A6xx) || \
1226:Drivers/STM32L4xx_HAL_Driver/Src/stm32l4xx_hal_flash_ex.c ****     defined (STM32L4P5xx) || defined (STM32L4Q5xx) || \
1227:Drivers/STM32L4xx_HAL_Driver/Src/stm32l4xx_hal_flash_ex.c ****     defined (STM32L4R5xx) || defined (STM32L4R7xx) || defined (STM32L4R9xx) || defined (STM32L4S5xx
1228:Drivers/STM32L4xx_HAL_Driver/Src/stm32l4xx_hal_flash_ex.c ****   /* Get the information about the bank swapping */
ARM GAS  /tmp/cc5sw4Du.s 			page 28


1229:Drivers/STM32L4xx_HAL_Driver/Src/stm32l4xx_hal_flash_ex.c ****   if (READ_BIT(SYSCFG->MEMRMP, SYSCFG_MEMRMP_FB_MODE) == 0U)
 293              		.loc 1 1229 3 view .LVU78
 294              		.loc 1 1229 7 is_stmt 0 view .LVU79
 295 0002 2B4B     		ldr	r3, .L35
 296 0004 1B68     		ldr	r3, [r3]
 297              		.loc 1 1229 6 view .LVU80
 298 0006 13F4807F 		tst	r3, #256
 299 000a 1DD1     		bne	.L26
1230:Drivers/STM32L4xx_HAL_Driver/Src/stm32l4xx_hal_flash_ex.c ****   {
1231:Drivers/STM32L4xx_HAL_Driver/Src/stm32l4xx_hal_flash_ex.c ****     bank1_addr = FLASH_BASE;
 300              		.loc 1 1231 5 is_stmt 1 view .LVU81
 301              	.LVL16:
1232:Drivers/STM32L4xx_HAL_Driver/Src/stm32l4xx_hal_flash_ex.c ****     bank2_addr = FLASH_BASE + FLASH_BANK_SIZE;
 302              		.loc 1 1232 5 view .LVU82
 303              		.loc 1 1232 31 is_stmt 0 view .LVU83
 304 000c 294B     		ldr	r3, .L35+4
 305 000e 1B68     		ldr	r3, [r3]
 306 0010 9DB2     		uxth	r5, r3
 307              		.loc 1 1232 29 view .LVU84
 308 0012 4FF6FF74 		movw	r4, #65535
 309 0016 A542     		cmp	r5, r4
 310 0018 25D0     		beq	.L30
 311              		.loc 1 1232 31 discriminator 1 view .LVU85
 312 001a 274D     		ldr	r5, .L35+8
 313 001c 05EA4325 		and	r5, r5, r3, lsl #9
 314              		.loc 1 1232 29 discriminator 1 view .LVU86
 315 0020 05F10065 		add	r5, r5, #134217728
1231:Drivers/STM32L4xx_HAL_Driver/Src/stm32l4xx_hal_flash_ex.c ****     bank2_addr = FLASH_BASE + FLASH_BANK_SIZE;
 316              		.loc 1 1231 16 discriminator 1 view .LVU87
 317 0024 4FF00064 		mov	r4, #134217728
 318              	.LVL17:
 319              	.L27:
1233:Drivers/STM32L4xx_HAL_Driver/Src/stm32l4xx_hal_flash_ex.c ****   }
1234:Drivers/STM32L4xx_HAL_Driver/Src/stm32l4xx_hal_flash_ex.c ****   else
1235:Drivers/STM32L4xx_HAL_Driver/Src/stm32l4xx_hal_flash_ex.c ****   {
1236:Drivers/STM32L4xx_HAL_Driver/Src/stm32l4xx_hal_flash_ex.c ****     bank1_addr = FLASH_BASE + FLASH_BANK_SIZE;
1237:Drivers/STM32L4xx_HAL_Driver/Src/stm32l4xx_hal_flash_ex.c ****     bank2_addr = FLASH_BASE;
1238:Drivers/STM32L4xx_HAL_Driver/Src/stm32l4xx_hal_flash_ex.c ****   }
1239:Drivers/STM32L4xx_HAL_Driver/Src/stm32l4xx_hal_flash_ex.c **** #else
1240:Drivers/STM32L4xx_HAL_Driver/Src/stm32l4xx_hal_flash_ex.c ****   bank1_addr = FLASH_BASE;
1241:Drivers/STM32L4xx_HAL_Driver/Src/stm32l4xx_hal_flash_ex.c **** #endif
1242:Drivers/STM32L4xx_HAL_Driver/Src/stm32l4xx_hal_flash_ex.c **** 
1243:Drivers/STM32L4xx_HAL_Driver/Src/stm32l4xx_hal_flash_ex.c **** #if defined (STM32L4P5xx) || defined (STM32L4Q5xx) || defined (STM32L4R5xx) || defined (STM32L4R7xx
1244:Drivers/STM32L4xx_HAL_Driver/Src/stm32l4xx_hal_flash_ex.c ****   if (READ_BIT(FLASH->OPTR, FLASH_OPTR_DBANK) == 0U)
1245:Drivers/STM32L4xx_HAL_Driver/Src/stm32l4xx_hal_flash_ex.c ****   {
1246:Drivers/STM32L4xx_HAL_Driver/Src/stm32l4xx_hal_flash_ex.c ****     if(((*PCROPConfig) & FLASH_BANK_BOTH) == FLASH_BANK_1)
1247:Drivers/STM32L4xx_HAL_Driver/Src/stm32l4xx_hal_flash_ex.c ****     {
1248:Drivers/STM32L4xx_HAL_Driver/Src/stm32l4xx_hal_flash_ex.c ****       reg_value       = (READ_REG(FLASH->PCROP1SR) & FLASH_PCROP1SR_PCROP1_STRT);
1249:Drivers/STM32L4xx_HAL_Driver/Src/stm32l4xx_hal_flash_ex.c ****       *PCROPStartAddr = (reg_value << 4) + FLASH_BASE;
1250:Drivers/STM32L4xx_HAL_Driver/Src/stm32l4xx_hal_flash_ex.c **** 
1251:Drivers/STM32L4xx_HAL_Driver/Src/stm32l4xx_hal_flash_ex.c ****       reg_value     = (READ_REG(FLASH->PCROP1ER) & FLASH_PCROP1ER_PCROP1_END);
1252:Drivers/STM32L4xx_HAL_Driver/Src/stm32l4xx_hal_flash_ex.c ****       *PCROPEndAddr = (reg_value << 4) + FLASH_BASE + 0xFU;
1253:Drivers/STM32L4xx_HAL_Driver/Src/stm32l4xx_hal_flash_ex.c ****     }
1254:Drivers/STM32L4xx_HAL_Driver/Src/stm32l4xx_hal_flash_ex.c ****     else if(((*PCROPConfig) & FLASH_BANK_BOTH) == FLASH_BANK_2)
1255:Drivers/STM32L4xx_HAL_Driver/Src/stm32l4xx_hal_flash_ex.c ****     {
1256:Drivers/STM32L4xx_HAL_Driver/Src/stm32l4xx_hal_flash_ex.c ****       reg_value       = (READ_REG(FLASH->PCROP2SR) & FLASH_PCROP2SR_PCROP2_STRT);
1257:Drivers/STM32L4xx_HAL_Driver/Src/stm32l4xx_hal_flash_ex.c ****       *PCROPStartAddr = (reg_value << 4) + FLASH_BASE;
ARM GAS  /tmp/cc5sw4Du.s 			page 29


1258:Drivers/STM32L4xx_HAL_Driver/Src/stm32l4xx_hal_flash_ex.c **** 
1259:Drivers/STM32L4xx_HAL_Driver/Src/stm32l4xx_hal_flash_ex.c ****       reg_value     = (READ_REG(FLASH->PCROP2ER) & FLASH_PCROP2ER_PCROP2_END);
1260:Drivers/STM32L4xx_HAL_Driver/Src/stm32l4xx_hal_flash_ex.c ****       *PCROPEndAddr = (reg_value << 4) + FLASH_BASE + 0xFU;;
1261:Drivers/STM32L4xx_HAL_Driver/Src/stm32l4xx_hal_flash_ex.c ****     }
1262:Drivers/STM32L4xx_HAL_Driver/Src/stm32l4xx_hal_flash_ex.c ****     else
1263:Drivers/STM32L4xx_HAL_Driver/Src/stm32l4xx_hal_flash_ex.c ****     {
1264:Drivers/STM32L4xx_HAL_Driver/Src/stm32l4xx_hal_flash_ex.c ****       /* Nothing to do */
1265:Drivers/STM32L4xx_HAL_Driver/Src/stm32l4xx_hal_flash_ex.c ****     }
1266:Drivers/STM32L4xx_HAL_Driver/Src/stm32l4xx_hal_flash_ex.c ****   }
1267:Drivers/STM32L4xx_HAL_Driver/Src/stm32l4xx_hal_flash_ex.c ****   else
1268:Drivers/STM32L4xx_HAL_Driver/Src/stm32l4xx_hal_flash_ex.c **** #endif
1269:Drivers/STM32L4xx_HAL_Driver/Src/stm32l4xx_hal_flash_ex.c ****   {
1270:Drivers/STM32L4xx_HAL_Driver/Src/stm32l4xx_hal_flash_ex.c ****     if(((*PCROPConfig) & FLASH_BANK_BOTH) == FLASH_BANK_1)
 320              		.loc 1 1270 5 is_stmt 1 view .LVU88
 321              		.loc 1 1270 10 is_stmt 0 view .LVU89
 322 0028 0368     		ldr	r3, [r0]
 323              		.loc 1 1270 24 view .LVU90
 324 002a 03F00303 		and	r3, r3, #3
 325              		.loc 1 1270 7 view .LVU91
 326 002e 012B     		cmp	r3, #1
 327 0030 21D0     		beq	.L33
1271:Drivers/STM32L4xx_HAL_Driver/Src/stm32l4xx_hal_flash_ex.c ****     {
1272:Drivers/STM32L4xx_HAL_Driver/Src/stm32l4xx_hal_flash_ex.c ****       reg_value       = (READ_REG(FLASH->PCROP1SR) & FLASH_PCROP1SR_PCROP1_STRT);
1273:Drivers/STM32L4xx_HAL_Driver/Src/stm32l4xx_hal_flash_ex.c ****       *PCROPStartAddr = (reg_value << 3) + bank1_addr;
1274:Drivers/STM32L4xx_HAL_Driver/Src/stm32l4xx_hal_flash_ex.c **** 
1275:Drivers/STM32L4xx_HAL_Driver/Src/stm32l4xx_hal_flash_ex.c ****       reg_value     = (READ_REG(FLASH->PCROP1ER) & FLASH_PCROP1ER_PCROP1_END);
1276:Drivers/STM32L4xx_HAL_Driver/Src/stm32l4xx_hal_flash_ex.c ****       *PCROPEndAddr = (reg_value << 3) + bank1_addr + 0x7U;
1277:Drivers/STM32L4xx_HAL_Driver/Src/stm32l4xx_hal_flash_ex.c ****     }
1278:Drivers/STM32L4xx_HAL_Driver/Src/stm32l4xx_hal_flash_ex.c **** #if defined (STM32L471xx) || defined (STM32L475xx) || defined (STM32L476xx) || defined (STM32L485xx
1279:Drivers/STM32L4xx_HAL_Driver/Src/stm32l4xx_hal_flash_ex.c ****     defined (STM32L496xx) || defined (STM32L4A6xx) || \
1280:Drivers/STM32L4xx_HAL_Driver/Src/stm32l4xx_hal_flash_ex.c ****     defined (STM32L4P5xx) || defined (STM32L4Q5xx) || \
1281:Drivers/STM32L4xx_HAL_Driver/Src/stm32l4xx_hal_flash_ex.c ****     defined (STM32L4R5xx) || defined (STM32L4R7xx) || defined (STM32L4R9xx) || defined (STM32L4S5xx
1282:Drivers/STM32L4xx_HAL_Driver/Src/stm32l4xx_hal_flash_ex.c ****     else if(((*PCROPConfig) & FLASH_BANK_BOTH) == FLASH_BANK_2)
 328              		.loc 1 1282 10 is_stmt 1 view .LVU92
 329              		.loc 1 1282 12 is_stmt 0 view .LVU93
 330 0032 022B     		cmp	r3, #2
 331 0034 2DD0     		beq	.L34
 332              	.LVL18:
 333              	.L29:
1283:Drivers/STM32L4xx_HAL_Driver/Src/stm32l4xx_hal_flash_ex.c ****     {
1284:Drivers/STM32L4xx_HAL_Driver/Src/stm32l4xx_hal_flash_ex.c ****       reg_value       = (READ_REG(FLASH->PCROP2SR) & FLASH_PCROP2SR_PCROP2_STRT);
1285:Drivers/STM32L4xx_HAL_Driver/Src/stm32l4xx_hal_flash_ex.c ****       *PCROPStartAddr = (reg_value << 3) + bank2_addr;
1286:Drivers/STM32L4xx_HAL_Driver/Src/stm32l4xx_hal_flash_ex.c **** 
1287:Drivers/STM32L4xx_HAL_Driver/Src/stm32l4xx_hal_flash_ex.c ****       reg_value     = (READ_REG(FLASH->PCROP2ER) & FLASH_PCROP2ER_PCROP2_END);
1288:Drivers/STM32L4xx_HAL_Driver/Src/stm32l4xx_hal_flash_ex.c ****       *PCROPEndAddr = (reg_value << 3) + bank2_addr + 0x7U;
1289:Drivers/STM32L4xx_HAL_Driver/Src/stm32l4xx_hal_flash_ex.c ****     }
1290:Drivers/STM32L4xx_HAL_Driver/Src/stm32l4xx_hal_flash_ex.c **** #endif
1291:Drivers/STM32L4xx_HAL_Driver/Src/stm32l4xx_hal_flash_ex.c ****     else
1292:Drivers/STM32L4xx_HAL_Driver/Src/stm32l4xx_hal_flash_ex.c ****     {
1293:Drivers/STM32L4xx_HAL_Driver/Src/stm32l4xx_hal_flash_ex.c ****       /* Nothing to do */
1294:Drivers/STM32L4xx_HAL_Driver/Src/stm32l4xx_hal_flash_ex.c ****     }
 334              		.loc 1 1294 5 is_stmt 1 view .LVU94
1295:Drivers/STM32L4xx_HAL_Driver/Src/stm32l4xx_hal_flash_ex.c ****   }
1296:Drivers/STM32L4xx_HAL_Driver/Src/stm32l4xx_hal_flash_ex.c **** 
1297:Drivers/STM32L4xx_HAL_Driver/Src/stm32l4xx_hal_flash_ex.c ****   *PCROPConfig |= (READ_REG(FLASH->PCROP1ER) & FLASH_PCROP1ER_PCROP_RDP);
 335              		.loc 1 1297 3 view .LVU95
 336              		.loc 1 1297 20 is_stmt 0 view .LVU96
ARM GAS  /tmp/cc5sw4Du.s 			page 30


 337 0036 214B     		ldr	r3, .L35+12
 338 0038 9A6A     		ldr	r2, [r3, #40]
 339              	.LVL19:
 340              		.loc 1 1297 46 view .LVU97
 341 003a 02F00042 		and	r2, r2, #-2147483648
 342              		.loc 1 1297 16 view .LVU98
 343 003e 0368     		ldr	r3, [r0]
 344 0040 1343     		orrs	r3, r3, r2
 345 0042 0360     		str	r3, [r0]
1298:Drivers/STM32L4xx_HAL_Driver/Src/stm32l4xx_hal_flash_ex.c **** }
 346              		.loc 1 1298 1 view .LVU99
 347 0044 70BC     		pop	{r4, r5, r6}
 348              		.cfi_remember_state
 349              		.cfi_restore 6
 350              		.cfi_restore 5
 351              		.cfi_restore 4
 352              		.cfi_def_cfa_offset 0
 353 0046 7047     		bx	lr
 354              	.LVL20:
 355              	.L26:
 356              		.cfi_restore_state
1236:Drivers/STM32L4xx_HAL_Driver/Src/stm32l4xx_hal_flash_ex.c ****     bank2_addr = FLASH_BASE;
 357              		.loc 1 1236 5 is_stmt 1 view .LVU100
1236:Drivers/STM32L4xx_HAL_Driver/Src/stm32l4xx_hal_flash_ex.c ****     bank2_addr = FLASH_BASE;
 358              		.loc 1 1236 31 is_stmt 0 view .LVU101
 359 0048 1A4B     		ldr	r3, .L35+4
 360 004a 1C68     		ldr	r4, [r3]
 361 004c A5B2     		uxth	r5, r4
1236:Drivers/STM32L4xx_HAL_Driver/Src/stm32l4xx_hal_flash_ex.c ****     bank2_addr = FLASH_BASE;
 362              		.loc 1 1236 29 view .LVU102
 363 004e 4FF6FF73 		movw	r3, #65535
 364 0052 9D42     		cmp	r5, r3
 365 0054 0BD0     		beq	.L31
1236:Drivers/STM32L4xx_HAL_Driver/Src/stm32l4xx_hal_flash_ex.c ****     bank2_addr = FLASH_BASE;
 366              		.loc 1 1236 31 discriminator 1 view .LVU103
 367 0056 184B     		ldr	r3, .L35+8
 368 0058 03EA4423 		and	r3, r3, r4, lsl #9
1236:Drivers/STM32L4xx_HAL_Driver/Src/stm32l4xx_hal_flash_ex.c ****     bank2_addr = FLASH_BASE;
 369              		.loc 1 1236 29 discriminator 1 view .LVU104
 370 005c 03F10064 		add	r4, r3, #134217728
1237:Drivers/STM32L4xx_HAL_Driver/Src/stm32l4xx_hal_flash_ex.c ****   }
 371              		.loc 1 1237 16 discriminator 1 view .LVU105
 372 0060 4FF00065 		mov	r5, #134217728
 373 0064 E0E7     		b	.L27
 374              	.LVL21:
 375              	.L30:
1232:Drivers/STM32L4xx_HAL_Driver/Src/stm32l4xx_hal_flash_ex.c ****   }
 376              		.loc 1 1232 29 view .LVU106
 377 0066 164D     		ldr	r5, .L35+16
1231:Drivers/STM32L4xx_HAL_Driver/Src/stm32l4xx_hal_flash_ex.c ****     bank2_addr = FLASH_BASE + FLASH_BANK_SIZE;
 378              		.loc 1 1231 16 view .LVU107
 379 0068 4FF00064 		mov	r4, #134217728
 380 006c DCE7     		b	.L27
 381              	.LVL22:
 382              	.L31:
1237:Drivers/STM32L4xx_HAL_Driver/Src/stm32l4xx_hal_flash_ex.c ****   }
 383              		.loc 1 1237 16 view .LVU108
ARM GAS  /tmp/cc5sw4Du.s 			page 31


 384 006e 4FF00065 		mov	r5, #134217728
1236:Drivers/STM32L4xx_HAL_Driver/Src/stm32l4xx_hal_flash_ex.c ****     bank2_addr = FLASH_BASE;
 385              		.loc 1 1236 29 view .LVU109
 386 0072 134C     		ldr	r4, .L35+16
 387 0074 D8E7     		b	.L27
 388              	.LVL23:
 389              	.L33:
1272:Drivers/STM32L4xx_HAL_Driver/Src/stm32l4xx_hal_flash_ex.c ****       *PCROPStartAddr = (reg_value << 3) + bank1_addr;
 390              		.loc 1 1272 7 is_stmt 1 view .LVU110
1272:Drivers/STM32L4xx_HAL_Driver/Src/stm32l4xx_hal_flash_ex.c ****       *PCROPStartAddr = (reg_value << 3) + bank1_addr;
 391              		.loc 1 1272 26 is_stmt 0 view .LVU111
 392 0076 114E     		ldr	r6, .L35+12
 393 0078 756A     		ldr	r5, [r6, #36]
 394              	.LVL24:
1273:Drivers/STM32L4xx_HAL_Driver/Src/stm32l4xx_hal_flash_ex.c **** 
 395              		.loc 1 1273 7 is_stmt 1 view .LVU112
1273:Drivers/STM32L4xx_HAL_Driver/Src/stm32l4xx_hal_flash_ex.c **** 
 396              		.loc 1 1273 36 is_stmt 0 view .LVU113
 397 007a 124B     		ldr	r3, .L35+20
 398 007c 03EAC505 		and	r5, r3, r5, lsl #3
 399              	.LVL25:
1273:Drivers/STM32L4xx_HAL_Driver/Src/stm32l4xx_hal_flash_ex.c **** 
 400              		.loc 1 1273 42 view .LVU114
 401 0080 2544     		add	r5, r5, r4
1273:Drivers/STM32L4xx_HAL_Driver/Src/stm32l4xx_hal_flash_ex.c **** 
 402              		.loc 1 1273 23 view .LVU115
 403 0082 0D60     		str	r5, [r1]
1275:Drivers/STM32L4xx_HAL_Driver/Src/stm32l4xx_hal_flash_ex.c ****       *PCROPEndAddr = (reg_value << 3) + bank1_addr + 0x7U;
 404              		.loc 1 1275 7 is_stmt 1 view .LVU116
1275:Drivers/STM32L4xx_HAL_Driver/Src/stm32l4xx_hal_flash_ex.c ****       *PCROPEndAddr = (reg_value << 3) + bank1_addr + 0x7U;
 405              		.loc 1 1275 24 is_stmt 0 view .LVU117
 406 0084 B16A     		ldr	r1, [r6, #40]
 407              	.LVL26:
1276:Drivers/STM32L4xx_HAL_Driver/Src/stm32l4xx_hal_flash_ex.c ****     }
 408              		.loc 1 1276 7 is_stmt 1 view .LVU118
1276:Drivers/STM32L4xx_HAL_Driver/Src/stm32l4xx_hal_flash_ex.c ****     }
 409              		.loc 1 1276 34 is_stmt 0 view .LVU119
 410 0086 03EAC103 		and	r3, r3, r1, lsl #3
1276:Drivers/STM32L4xx_HAL_Driver/Src/stm32l4xx_hal_flash_ex.c ****     }
 411              		.loc 1 1276 40 view .LVU120
 412 008a 2344     		add	r3, r3, r4
1276:Drivers/STM32L4xx_HAL_Driver/Src/stm32l4xx_hal_flash_ex.c ****     }
 413              		.loc 1 1276 53 view .LVU121
 414 008c 0733     		adds	r3, r3, #7
1276:Drivers/STM32L4xx_HAL_Driver/Src/stm32l4xx_hal_flash_ex.c ****     }
 415              		.loc 1 1276 21 view .LVU122
 416 008e 1360     		str	r3, [r2]
 417 0090 D1E7     		b	.L29
 418              	.LVL27:
 419              	.L34:
1284:Drivers/STM32L4xx_HAL_Driver/Src/stm32l4xx_hal_flash_ex.c ****       *PCROPStartAddr = (reg_value << 3) + bank2_addr;
 420              		.loc 1 1284 7 is_stmt 1 view .LVU123
1284:Drivers/STM32L4xx_HAL_Driver/Src/stm32l4xx_hal_flash_ex.c ****       *PCROPStartAddr = (reg_value << 3) + bank2_addr;
 421              		.loc 1 1284 26 is_stmt 0 view .LVU124
 422 0092 0A4E     		ldr	r6, .L35+12
 423 0094 746C     		ldr	r4, [r6, #68]
 424              	.LVL28:
ARM GAS  /tmp/cc5sw4Du.s 			page 32


1285:Drivers/STM32L4xx_HAL_Driver/Src/stm32l4xx_hal_flash_ex.c **** 
 425              		.loc 1 1285 7 is_stmt 1 view .LVU125
1285:Drivers/STM32L4xx_HAL_Driver/Src/stm32l4xx_hal_flash_ex.c **** 
 426              		.loc 1 1285 36 is_stmt 0 view .LVU126
 427 0096 0B4B     		ldr	r3, .L35+20
 428 0098 03EAC404 		and	r4, r3, r4, lsl #3
 429              	.LVL29:
1285:Drivers/STM32L4xx_HAL_Driver/Src/stm32l4xx_hal_flash_ex.c **** 
 430              		.loc 1 1285 42 view .LVU127
 431 009c 2C44     		add	r4, r4, r5
1285:Drivers/STM32L4xx_HAL_Driver/Src/stm32l4xx_hal_flash_ex.c **** 
 432              		.loc 1 1285 23 view .LVU128
 433 009e 0C60     		str	r4, [r1]
1287:Drivers/STM32L4xx_HAL_Driver/Src/stm32l4xx_hal_flash_ex.c ****       *PCROPEndAddr = (reg_value << 3) + bank2_addr + 0x7U;
 434              		.loc 1 1287 7 is_stmt 1 view .LVU129
1287:Drivers/STM32L4xx_HAL_Driver/Src/stm32l4xx_hal_flash_ex.c ****       *PCROPEndAddr = (reg_value << 3) + bank2_addr + 0x7U;
 435              		.loc 1 1287 24 is_stmt 0 view .LVU130
 436 00a0 B16C     		ldr	r1, [r6, #72]
 437              	.LVL30:
1288:Drivers/STM32L4xx_HAL_Driver/Src/stm32l4xx_hal_flash_ex.c ****     }
 438              		.loc 1 1288 7 is_stmt 1 view .LVU131
1288:Drivers/STM32L4xx_HAL_Driver/Src/stm32l4xx_hal_flash_ex.c ****     }
 439              		.loc 1 1288 34 is_stmt 0 view .LVU132
 440 00a2 03EAC103 		and	r3, r3, r1, lsl #3
1288:Drivers/STM32L4xx_HAL_Driver/Src/stm32l4xx_hal_flash_ex.c ****     }
 441              		.loc 1 1288 40 view .LVU133
 442 00a6 1D44     		add	r5, r5, r3
 443              	.LVL31:
1288:Drivers/STM32L4xx_HAL_Driver/Src/stm32l4xx_hal_flash_ex.c ****     }
 444              		.loc 1 1288 53 view .LVU134
 445 00a8 0735     		adds	r5, r5, #7
1288:Drivers/STM32L4xx_HAL_Driver/Src/stm32l4xx_hal_flash_ex.c ****     }
 446              		.loc 1 1288 21 view .LVU135
 447 00aa 1560     		str	r5, [r2]
 448 00ac C3E7     		b	.L29
 449              	.L36:
 450 00ae 00BF     		.align	2
 451              	.L35:
 452 00b0 00000140 		.word	1073807360
 453 00b4 E075FF1F 		.word	536835552
 454 00b8 00FEFF01 		.word	33553920
 455 00bc 00200240 		.word	1073881088
 456 00c0 00000808 		.word	134742016
 457 00c4 F8FF0700 		.word	524280
 458              		.cfi_endproc
 459              	.LFE331:
 461              		.section	.text.FLASH_OB_WRPConfig,"ax",%progbits
 462              		.align	1
 463              		.syntax unified
 464              		.thumb
 465              		.thumb_func
 466              		.fpu fpv4-sp-d16
 468              	FLASH_OB_WRPConfig:
 469              	.LVL32:
 470              	.LFB324:
 652:Drivers/STM32L4xx_HAL_Driver/Src/stm32l4xx_hal_flash_ex.c ****   HAL_StatusTypeDef status;
 471              		.loc 1 652 1 is_stmt 1 view -0
ARM GAS  /tmp/cc5sw4Du.s 			page 33


 472              		.cfi_startproc
 473              		@ args = 0, pretend = 0, frame = 0
 474              		@ frame_needed = 0, uses_anonymous_args = 0
 652:Drivers/STM32L4xx_HAL_Driver/Src/stm32l4xx_hal_flash_ex.c ****   HAL_StatusTypeDef status;
 475              		.loc 1 652 1 is_stmt 0 view .LVU137
 476 0000 70B5     		push	{r4, r5, r6, lr}
 477              		.cfi_def_cfa_offset 16
 478              		.cfi_offset 4, -16
 479              		.cfi_offset 5, -12
 480              		.cfi_offset 6, -8
 481              		.cfi_offset 14, -4
 482 0002 0546     		mov	r5, r0
 483 0004 0C46     		mov	r4, r1
 484 0006 1646     		mov	r6, r2
 653:Drivers/STM32L4xx_HAL_Driver/Src/stm32l4xx_hal_flash_ex.c **** 
 485              		.loc 1 653 3 is_stmt 1 view .LVU138
 656:Drivers/STM32L4xx_HAL_Driver/Src/stm32l4xx_hal_flash_ex.c ****   assert_param(IS_FLASH_PAGE(WRPStartOffset));
 486              		.loc 1 656 3 view .LVU139
 657:Drivers/STM32L4xx_HAL_Driver/Src/stm32l4xx_hal_flash_ex.c ****   assert_param(IS_FLASH_PAGE(WRDPEndOffset));
 487              		.loc 1 657 3 view .LVU140
 658:Drivers/STM32L4xx_HAL_Driver/Src/stm32l4xx_hal_flash_ex.c **** 
 488              		.loc 1 658 3 view .LVU141
 661:Drivers/STM32L4xx_HAL_Driver/Src/stm32l4xx_hal_flash_ex.c **** 
 489              		.loc 1 661 3 view .LVU142
 661:Drivers/STM32L4xx_HAL_Driver/Src/stm32l4xx_hal_flash_ex.c **** 
 490              		.loc 1 661 12 is_stmt 0 view .LVU143
 491 0008 4CF25030 		movw	r0, #50000
 492              	.LVL33:
 661:Drivers/STM32L4xx_HAL_Driver/Src/stm32l4xx_hal_flash_ex.c **** 
 493              		.loc 1 661 12 view .LVU144
 494 000c FFF7FEFF 		bl	FLASH_WaitForLastOperation
 495              	.LVL34:
 663:Drivers/STM32L4xx_HAL_Driver/Src/stm32l4xx_hal_flash_ex.c ****   {
 496              		.loc 1 663 3 is_stmt 1 view .LVU145
 663:Drivers/STM32L4xx_HAL_Driver/Src/stm32l4xx_hal_flash_ex.c ****   {
 497              		.loc 1 663 5 is_stmt 0 view .LVU146
 498 0010 0346     		mov	r3, r0
 499 0012 B0B9     		cbnz	r0, .L38
 666:Drivers/STM32L4xx_HAL_Driver/Src/stm32l4xx_hal_flash_ex.c ****     {
 500              		.loc 1 666 5 is_stmt 1 view .LVU147
 666:Drivers/STM32L4xx_HAL_Driver/Src/stm32l4xx_hal_flash_ex.c ****     {
 501              		.loc 1 666 7 is_stmt 0 view .LVU148
 502 0014 BDB9     		cbnz	r5, .L39
 668:Drivers/STM32L4xx_HAL_Driver/Src/stm32l4xx_hal_flash_ex.c ****                  (WRPStartOffset | (WRDPEndOffset << 16)));
 503              		.loc 1 668 7 is_stmt 1 view .LVU149
 504 0016 1C4A     		ldr	r2, .L46
 505 0018 D36A     		ldr	r3, [r2, #44]
 506 001a 03F0FF23 		and	r3, r3, #-16711936
 507 001e 44EA0644 		orr	r4, r4, r6, lsl #16
 508              	.LVL35:
 668:Drivers/STM32L4xx_HAL_Driver/Src/stm32l4xx_hal_flash_ex.c ****                  (WRPStartOffset | (WRDPEndOffset << 16)));
 509              		.loc 1 668 7 is_stmt 0 view .LVU150
 510 0022 1C43     		orrs	r4, r4, r3
 511 0024 D462     		str	r4, [r2, #44]
 512              	.L40:
 694:Drivers/STM32L4xx_HAL_Driver/Src/stm32l4xx_hal_flash_ex.c **** 
 513              		.loc 1 694 5 is_stmt 1 view .LVU151
ARM GAS  /tmp/cc5sw4Du.s 			page 34


 697:Drivers/STM32L4xx_HAL_Driver/Src/stm32l4xx_hal_flash_ex.c **** 
 514              		.loc 1 697 5 view .LVU152
 515 0026 184C     		ldr	r4, .L46
 516 0028 6369     		ldr	r3, [r4, #20]
 517 002a 43F40033 		orr	r3, r3, #131072
 518 002e 6361     		str	r3, [r4, #20]
 700:Drivers/STM32L4xx_HAL_Driver/Src/stm32l4xx_hal_flash_ex.c **** 
 519              		.loc 1 700 5 view .LVU153
 700:Drivers/STM32L4xx_HAL_Driver/Src/stm32l4xx_hal_flash_ex.c **** 
 520              		.loc 1 700 14 is_stmt 0 view .LVU154
 521 0030 4CF25030 		movw	r0, #50000
 522              	.LVL36:
 700:Drivers/STM32L4xx_HAL_Driver/Src/stm32l4xx_hal_flash_ex.c **** 
 523              		.loc 1 700 14 view .LVU155
 524 0034 FFF7FEFF 		bl	FLASH_WaitForLastOperation
 525              	.LVL37:
 526 0038 0346     		mov	r3, r0
 527              	.LVL38:
 703:Drivers/STM32L4xx_HAL_Driver/Src/stm32l4xx_hal_flash_ex.c ****   }
 528              		.loc 1 703 5 is_stmt 1 view .LVU156
 529 003a 6269     		ldr	r2, [r4, #20]
 530 003c 22F40032 		bic	r2, r2, #131072
 531 0040 6261     		str	r2, [r4, #20]
 532              	.LVL39:
 533              	.L38:
 706:Drivers/STM32L4xx_HAL_Driver/Src/stm32l4xx_hal_flash_ex.c **** }
 534              		.loc 1 706 3 view .LVU157
 707:Drivers/STM32L4xx_HAL_Driver/Src/stm32l4xx_hal_flash_ex.c **** 
 535              		.loc 1 707 1 is_stmt 0 view .LVU158
 536 0042 1846     		mov	r0, r3
 537 0044 70BD     		pop	{r4, r5, r6, pc}
 538              	.LVL40:
 539              	.L39:
 671:Drivers/STM32L4xx_HAL_Driver/Src/stm32l4xx_hal_flash_ex.c ****     {
 540              		.loc 1 671 10 is_stmt 1 view .LVU159
 671:Drivers/STM32L4xx_HAL_Driver/Src/stm32l4xx_hal_flash_ex.c ****     {
 541              		.loc 1 671 12 is_stmt 0 view .LVU160
 542 0046 012D     		cmp	r5, #1
 543 0048 0CD0     		beq	.L44
 680:Drivers/STM32L4xx_HAL_Driver/Src/stm32l4xx_hal_flash_ex.c ****     {
 544              		.loc 1 680 10 is_stmt 1 view .LVU161
 680:Drivers/STM32L4xx_HAL_Driver/Src/stm32l4xx_hal_flash_ex.c ****     {
 545              		.loc 1 680 12 is_stmt 0 view .LVU162
 546 004a 022D     		cmp	r5, #2
 547 004c 13D0     		beq	.L45
 685:Drivers/STM32L4xx_HAL_Driver/Src/stm32l4xx_hal_flash_ex.c ****     {
 548              		.loc 1 685 10 is_stmt 1 view .LVU163
 685:Drivers/STM32L4xx_HAL_Driver/Src/stm32l4xx_hal_flash_ex.c ****     {
 549              		.loc 1 685 12 is_stmt 0 view .LVU164
 550 004e 042D     		cmp	r5, #4
 551 0050 E9D1     		bne	.L40
 687:Drivers/STM32L4xx_HAL_Driver/Src/stm32l4xx_hal_flash_ex.c ****                  (WRPStartOffset | (WRDPEndOffset << 16)));
 552              		.loc 1 687 7 is_stmt 1 view .LVU165
 553 0052 0D4A     		ldr	r2, .L46
 554 0054 136D     		ldr	r3, [r2, #80]
 555 0056 03F0FF23 		and	r3, r3, #-16711936
 556 005a 44EA0644 		orr	r4, r4, r6, lsl #16
ARM GAS  /tmp/cc5sw4Du.s 			page 35


 557              	.LVL41:
 687:Drivers/STM32L4xx_HAL_Driver/Src/stm32l4xx_hal_flash_ex.c ****                  (WRPStartOffset | (WRDPEndOffset << 16)));
 558              		.loc 1 687 7 is_stmt 0 view .LVU166
 559 005e 1C43     		orrs	r4, r4, r3
 560 0060 1465     		str	r4, [r2, #80]
 561 0062 E0E7     		b	.L40
 562              	.LVL42:
 563              	.L44:
 673:Drivers/STM32L4xx_HAL_Driver/Src/stm32l4xx_hal_flash_ex.c ****                  (WRPStartOffset | (WRDPEndOffset << 16)));
 564              		.loc 1 673 7 is_stmt 1 view .LVU167
 565 0064 084A     		ldr	r2, .L46
 566 0066 136B     		ldr	r3, [r2, #48]
 567 0068 03F0FF23 		and	r3, r3, #-16711936
 568 006c 44EA0644 		orr	r4, r4, r6, lsl #16
 569              	.LVL43:
 673:Drivers/STM32L4xx_HAL_Driver/Src/stm32l4xx_hal_flash_ex.c ****                  (WRPStartOffset | (WRDPEndOffset << 16)));
 570              		.loc 1 673 7 is_stmt 0 view .LVU168
 571 0070 1C43     		orrs	r4, r4, r3
 572 0072 1463     		str	r4, [r2, #48]
 573 0074 D7E7     		b	.L40
 574              	.LVL44:
 575              	.L45:
 682:Drivers/STM32L4xx_HAL_Driver/Src/stm32l4xx_hal_flash_ex.c ****                  (WRPStartOffset | (WRDPEndOffset << 16)));
 576              		.loc 1 682 7 is_stmt 1 view .LVU169
 577 0076 044A     		ldr	r2, .L46
 578 0078 D36C     		ldr	r3, [r2, #76]
 579 007a 03F0FF23 		and	r3, r3, #-16711936
 580 007e 44EA0644 		orr	r4, r4, r6, lsl #16
 581              	.LVL45:
 682:Drivers/STM32L4xx_HAL_Driver/Src/stm32l4xx_hal_flash_ex.c ****                  (WRPStartOffset | (WRDPEndOffset << 16)));
 582              		.loc 1 682 7 is_stmt 0 view .LVU170
 583 0082 1C43     		orrs	r4, r4, r3
 584 0084 D464     		str	r4, [r2, #76]
 585 0086 CEE7     		b	.L40
 586              	.L47:
 587              		.align	2
 588              	.L46:
 589 0088 00200240 		.word	1073881088
 590              		.cfi_endproc
 591              	.LFE324:
 593              		.section	.text.FLASH_OB_RDPConfig,"ax",%progbits
 594              		.align	1
 595              		.syntax unified
 596              		.thumb
 597              		.thumb_func
 598              		.fpu fpv4-sp-d16
 600              	FLASH_OB_RDPConfig:
 601              	.LVL46:
 602              	.LFB325:
 728:Drivers/STM32L4xx_HAL_Driver/Src/stm32l4xx_hal_flash_ex.c ****   HAL_StatusTypeDef status;
 603              		.loc 1 728 1 is_stmt 1 view -0
 604              		.cfi_startproc
 605              		@ args = 0, pretend = 0, frame = 0
 606              		@ frame_needed = 0, uses_anonymous_args = 0
 728:Drivers/STM32L4xx_HAL_Driver/Src/stm32l4xx_hal_flash_ex.c ****   HAL_StatusTypeDef status;
 607              		.loc 1 728 1 is_stmt 0 view .LVU172
 608 0000 38B5     		push	{r3, r4, r5, lr}
ARM GAS  /tmp/cc5sw4Du.s 			page 36


 609              		.cfi_def_cfa_offset 16
 610              		.cfi_offset 3, -16
 611              		.cfi_offset 4, -12
 612              		.cfi_offset 5, -8
 613              		.cfi_offset 14, -4
 614 0002 0546     		mov	r5, r0
 729:Drivers/STM32L4xx_HAL_Driver/Src/stm32l4xx_hal_flash_ex.c **** 
 615              		.loc 1 729 3 is_stmt 1 view .LVU173
 732:Drivers/STM32L4xx_HAL_Driver/Src/stm32l4xx_hal_flash_ex.c **** 
 616              		.loc 1 732 3 view .LVU174
 735:Drivers/STM32L4xx_HAL_Driver/Src/stm32l4xx_hal_flash_ex.c **** 
 617              		.loc 1 735 3 view .LVU175
 735:Drivers/STM32L4xx_HAL_Driver/Src/stm32l4xx_hal_flash_ex.c **** 
 618              		.loc 1 735 12 is_stmt 0 view .LVU176
 619 0004 4CF25030 		movw	r0, #50000
 620              	.LVL47:
 735:Drivers/STM32L4xx_HAL_Driver/Src/stm32l4xx_hal_flash_ex.c **** 
 621              		.loc 1 735 12 view .LVU177
 622 0008 FFF7FEFF 		bl	FLASH_WaitForLastOperation
 623              	.LVL48:
 737:Drivers/STM32L4xx_HAL_Driver/Src/stm32l4xx_hal_flash_ex.c ****   {
 624              		.loc 1 737 3 is_stmt 1 view .LVU178
 737:Drivers/STM32L4xx_HAL_Driver/Src/stm32l4xx_hal_flash_ex.c ****   {
 625              		.loc 1 737 5 is_stmt 0 view .LVU179
 626 000c 0346     		mov	r3, r0
 627 000e 08B1     		cbz	r0, .L51
 628              	.LVL49:
 629              	.L49:
 752:Drivers/STM32L4xx_HAL_Driver/Src/stm32l4xx_hal_flash_ex.c **** }
 630              		.loc 1 752 3 is_stmt 1 view .LVU180
 753:Drivers/STM32L4xx_HAL_Driver/Src/stm32l4xx_hal_flash_ex.c **** 
 631              		.loc 1 753 1 is_stmt 0 view .LVU181
 632 0010 1846     		mov	r0, r3
 633 0012 38BD     		pop	{r3, r4, r5, pc}
 634              	.LVL50:
 635              	.L51:
 740:Drivers/STM32L4xx_HAL_Driver/Src/stm32l4xx_hal_flash_ex.c **** 
 636              		.loc 1 740 5 is_stmt 1 view .LVU182
 637 0014 094C     		ldr	r4, .L52
 638 0016 206A     		ldr	r0, [r4, #32]
 639              	.LVL51:
 740:Drivers/STM32L4xx_HAL_Driver/Src/stm32l4xx_hal_flash_ex.c **** 
 640              		.loc 1 740 5 is_stmt 0 view .LVU183
 641 0018 20F0FF00 		bic	r0, r0, #255
 642 001c 2843     		orrs	r0, r0, r5
 643 001e 2062     		str	r0, [r4, #32]
 743:Drivers/STM32L4xx_HAL_Driver/Src/stm32l4xx_hal_flash_ex.c **** 
 644              		.loc 1 743 5 is_stmt 1 view .LVU184
 645 0020 6369     		ldr	r3, [r4, #20]
 646 0022 43F40033 		orr	r3, r3, #131072
 647 0026 6361     		str	r3, [r4, #20]
 746:Drivers/STM32L4xx_HAL_Driver/Src/stm32l4xx_hal_flash_ex.c **** 
 648              		.loc 1 746 5 view .LVU185
 746:Drivers/STM32L4xx_HAL_Driver/Src/stm32l4xx_hal_flash_ex.c **** 
 649              		.loc 1 746 14 is_stmt 0 view .LVU186
 650 0028 4CF25030 		movw	r0, #50000
 651 002c FFF7FEFF 		bl	FLASH_WaitForLastOperation
ARM GAS  /tmp/cc5sw4Du.s 			page 37


 652              	.LVL52:
 653 0030 0346     		mov	r3, r0
 654              	.LVL53:
 749:Drivers/STM32L4xx_HAL_Driver/Src/stm32l4xx_hal_flash_ex.c ****   }
 655              		.loc 1 749 5 is_stmt 1 view .LVU187
 656 0032 6269     		ldr	r2, [r4, #20]
 657 0034 22F40032 		bic	r2, r2, #131072
 658 0038 6261     		str	r2, [r4, #20]
 659 003a E9E7     		b	.L49
 660              	.L53:
 661              		.align	2
 662              	.L52:
 663 003c 00200240 		.word	1073881088
 664              		.cfi_endproc
 665              	.LFE325:
 667              		.section	.text.FLASH_OB_UserConfig,"ax",%progbits
 668              		.align	1
 669              		.syntax unified
 670              		.thumb
 671              		.thumb_func
 672              		.fpu fpv4-sp-d16
 674              	FLASH_OB_UserConfig:
 675              	.LVL54:
 676              	.LFB326:
 772:Drivers/STM32L4xx_HAL_Driver/Src/stm32l4xx_hal_flash_ex.c ****   uint32_t optr_reg_val = 0;
 677              		.loc 1 772 1 view -0
 678              		.cfi_startproc
 679              		@ args = 0, pretend = 0, frame = 0
 680              		@ frame_needed = 0, uses_anonymous_args = 0
 772:Drivers/STM32L4xx_HAL_Driver/Src/stm32l4xx_hal_flash_ex.c ****   uint32_t optr_reg_val = 0;
 681              		.loc 1 772 1 is_stmt 0 view .LVU189
 682 0000 38B5     		push	{r3, r4, r5, lr}
 683              		.cfi_def_cfa_offset 16
 684              		.cfi_offset 3, -16
 685              		.cfi_offset 4, -12
 686              		.cfi_offset 5, -8
 687              		.cfi_offset 14, -4
 688 0002 0446     		mov	r4, r0
 689 0004 0D46     		mov	r5, r1
 773:Drivers/STM32L4xx_HAL_Driver/Src/stm32l4xx_hal_flash_ex.c ****   uint32_t optr_reg_mask = 0;
 690              		.loc 1 773 3 is_stmt 1 view .LVU190
 691              	.LVL55:
 774:Drivers/STM32L4xx_HAL_Driver/Src/stm32l4xx_hal_flash_ex.c ****   HAL_StatusTypeDef status;
 692              		.loc 1 774 3 view .LVU191
 775:Drivers/STM32L4xx_HAL_Driver/Src/stm32l4xx_hal_flash_ex.c **** 
 693              		.loc 1 775 3 view .LVU192
 778:Drivers/STM32L4xx_HAL_Driver/Src/stm32l4xx_hal_flash_ex.c **** 
 694              		.loc 1 778 3 view .LVU193
 781:Drivers/STM32L4xx_HAL_Driver/Src/stm32l4xx_hal_flash_ex.c **** 
 695              		.loc 1 781 3 view .LVU194
 781:Drivers/STM32L4xx_HAL_Driver/Src/stm32l4xx_hal_flash_ex.c **** 
 696              		.loc 1 781 12 is_stmt 0 view .LVU195
 697 0006 4CF25030 		movw	r0, #50000
 698              	.LVL56:
 781:Drivers/STM32L4xx_HAL_Driver/Src/stm32l4xx_hal_flash_ex.c **** 
 699              		.loc 1 781 12 view .LVU196
 700 000a FFF7FEFF 		bl	FLASH_WaitForLastOperation
ARM GAS  /tmp/cc5sw4Du.s 			page 38


 701              	.LVL57:
 783:Drivers/STM32L4xx_HAL_Driver/Src/stm32l4xx_hal_flash_ex.c ****   {
 702              		.loc 1 783 3 is_stmt 1 view .LVU197
 783:Drivers/STM32L4xx_HAL_Driver/Src/stm32l4xx_hal_flash_ex.c ****   {
 703              		.loc 1 783 5 is_stmt 0 view .LVU198
 704 000e 0346     		mov	r3, r0
 705 0010 0028     		cmp	r0, #0
 706 0012 79D1     		bne	.L55
 785:Drivers/STM32L4xx_HAL_Driver/Src/stm32l4xx_hal_flash_ex.c ****     {
 707              		.loc 1 785 5 is_stmt 1 view .LVU199
 785:Drivers/STM32L4xx_HAL_Driver/Src/stm32l4xx_hal_flash_ex.c ****     {
 708              		.loc 1 785 7 is_stmt 0 view .LVU200
 709 0014 14F00103 		ands	r3, r4, #1
 710 0018 78D0     		beq	.L69
 788:Drivers/STM32L4xx_HAL_Driver/Src/stm32l4xx_hal_flash_ex.c **** 
 711              		.loc 1 788 7 is_stmt 1 view .LVU201
 791:Drivers/STM32L4xx_HAL_Driver/Src/stm32l4xx_hal_flash_ex.c ****       optr_reg_mask |= FLASH_OPTR_BOR_LEV;
 712              		.loc 1 791 7 view .LVU202
 791:Drivers/STM32L4xx_HAL_Driver/Src/stm32l4xx_hal_flash_ex.c ****       optr_reg_mask |= FLASH_OPTR_BOR_LEV;
 713              		.loc 1 791 35 is_stmt 0 view .LVU203
 714 001a 05F4E063 		and	r3, r5, #1792
 715              	.LVL58:
 792:Drivers/STM32L4xx_HAL_Driver/Src/stm32l4xx_hal_flash_ex.c ****     }
 716              		.loc 1 792 7 is_stmt 1 view .LVU204
 792:Drivers/STM32L4xx_HAL_Driver/Src/stm32l4xx_hal_flash_ex.c ****     }
 717              		.loc 1 792 21 is_stmt 0 view .LVU205
 718 001e 4FF4E062 		mov	r2, #1792
 719              	.LVL59:
 720              	.L56:
 795:Drivers/STM32L4xx_HAL_Driver/Src/stm32l4xx_hal_flash_ex.c ****     {
 721              		.loc 1 795 5 is_stmt 1 view .LVU206
 795:Drivers/STM32L4xx_HAL_Driver/Src/stm32l4xx_hal_flash_ex.c ****     {
 722              		.loc 1 795 7 is_stmt 0 view .LVU207
 723 0022 14F0020F 		tst	r4, #2
 724 0026 04D0     		beq	.L57
 798:Drivers/STM32L4xx_HAL_Driver/Src/stm32l4xx_hal_flash_ex.c **** 
 725              		.loc 1 798 7 is_stmt 1 view .LVU208
 801:Drivers/STM32L4xx_HAL_Driver/Src/stm32l4xx_hal_flash_ex.c ****       optr_reg_mask |= FLASH_OPTR_nRST_STOP;
 726              		.loc 1 801 7 view .LVU209
 801:Drivers/STM32L4xx_HAL_Driver/Src/stm32l4xx_hal_flash_ex.c ****       optr_reg_mask |= FLASH_OPTR_nRST_STOP;
 727              		.loc 1 801 35 is_stmt 0 view .LVU210
 728 0028 05F48051 		and	r1, r5, #4096
 801:Drivers/STM32L4xx_HAL_Driver/Src/stm32l4xx_hal_flash_ex.c ****       optr_reg_mask |= FLASH_OPTR_nRST_STOP;
 729              		.loc 1 801 20 view .LVU211
 730 002c 0B43     		orrs	r3, r3, r1
 731              	.LVL60:
 802:Drivers/STM32L4xx_HAL_Driver/Src/stm32l4xx_hal_flash_ex.c ****     }
 732              		.loc 1 802 7 is_stmt 1 view .LVU212
 802:Drivers/STM32L4xx_HAL_Driver/Src/stm32l4xx_hal_flash_ex.c ****     }
 733              		.loc 1 802 21 is_stmt 0 view .LVU213
 734 002e 42F48052 		orr	r2, r2, #4096
 735              	.LVL61:
 736              	.L57:
 805:Drivers/STM32L4xx_HAL_Driver/Src/stm32l4xx_hal_flash_ex.c ****     {
 737              		.loc 1 805 5 is_stmt 1 view .LVU214
 805:Drivers/STM32L4xx_HAL_Driver/Src/stm32l4xx_hal_flash_ex.c ****     {
 738              		.loc 1 805 7 is_stmt 0 view .LVU215
ARM GAS  /tmp/cc5sw4Du.s 			page 39


 739 0032 14F0040F 		tst	r4, #4
 740 0036 04D0     		beq	.L58
 808:Drivers/STM32L4xx_HAL_Driver/Src/stm32l4xx_hal_flash_ex.c **** 
 741              		.loc 1 808 7 is_stmt 1 view .LVU216
 811:Drivers/STM32L4xx_HAL_Driver/Src/stm32l4xx_hal_flash_ex.c ****       optr_reg_mask |= FLASH_OPTR_nRST_STDBY;
 742              		.loc 1 811 7 view .LVU217
 811:Drivers/STM32L4xx_HAL_Driver/Src/stm32l4xx_hal_flash_ex.c ****       optr_reg_mask |= FLASH_OPTR_nRST_STDBY;
 743              		.loc 1 811 35 is_stmt 0 view .LVU218
 744 0038 05F40051 		and	r1, r5, #8192
 811:Drivers/STM32L4xx_HAL_Driver/Src/stm32l4xx_hal_flash_ex.c ****       optr_reg_mask |= FLASH_OPTR_nRST_STDBY;
 745              		.loc 1 811 20 view .LVU219
 746 003c 0B43     		orrs	r3, r3, r1
 747              	.LVL62:
 812:Drivers/STM32L4xx_HAL_Driver/Src/stm32l4xx_hal_flash_ex.c ****     }
 748              		.loc 1 812 7 is_stmt 1 view .LVU220
 812:Drivers/STM32L4xx_HAL_Driver/Src/stm32l4xx_hal_flash_ex.c ****     }
 749              		.loc 1 812 21 is_stmt 0 view .LVU221
 750 003e 42F40052 		orr	r2, r2, #8192
 751              	.LVL63:
 752              	.L58:
 815:Drivers/STM32L4xx_HAL_Driver/Src/stm32l4xx_hal_flash_ex.c ****     {
 753              		.loc 1 815 5 is_stmt 1 view .LVU222
 815:Drivers/STM32L4xx_HAL_Driver/Src/stm32l4xx_hal_flash_ex.c ****     {
 754              		.loc 1 815 7 is_stmt 0 view .LVU223
 755 0042 14F4805F 		tst	r4, #4096
 756 0046 04D0     		beq	.L59
 818:Drivers/STM32L4xx_HAL_Driver/Src/stm32l4xx_hal_flash_ex.c **** 
 757              		.loc 1 818 7 is_stmt 1 view .LVU224
 821:Drivers/STM32L4xx_HAL_Driver/Src/stm32l4xx_hal_flash_ex.c ****       optr_reg_mask |= FLASH_OPTR_nRST_SHDW;
 758              		.loc 1 821 7 view .LVU225
 821:Drivers/STM32L4xx_HAL_Driver/Src/stm32l4xx_hal_flash_ex.c ****       optr_reg_mask |= FLASH_OPTR_nRST_SHDW;
 759              		.loc 1 821 35 is_stmt 0 view .LVU226
 760 0048 05F48041 		and	r1, r5, #16384
 821:Drivers/STM32L4xx_HAL_Driver/Src/stm32l4xx_hal_flash_ex.c ****       optr_reg_mask |= FLASH_OPTR_nRST_SHDW;
 761              		.loc 1 821 20 view .LVU227
 762 004c 0B43     		orrs	r3, r3, r1
 763              	.LVL64:
 822:Drivers/STM32L4xx_HAL_Driver/Src/stm32l4xx_hal_flash_ex.c ****     }
 764              		.loc 1 822 7 is_stmt 1 view .LVU228
 822:Drivers/STM32L4xx_HAL_Driver/Src/stm32l4xx_hal_flash_ex.c ****     }
 765              		.loc 1 822 21 is_stmt 0 view .LVU229
 766 004e 42F48042 		orr	r2, r2, #16384
 767              	.LVL65:
 768              	.L59:
 825:Drivers/STM32L4xx_HAL_Driver/Src/stm32l4xx_hal_flash_ex.c ****     {
 769              		.loc 1 825 5 is_stmt 1 view .LVU230
 825:Drivers/STM32L4xx_HAL_Driver/Src/stm32l4xx_hal_flash_ex.c ****     {
 770              		.loc 1 825 7 is_stmt 0 view .LVU231
 771 0052 14F0080F 		tst	r4, #8
 772 0056 04D0     		beq	.L60
 828:Drivers/STM32L4xx_HAL_Driver/Src/stm32l4xx_hal_flash_ex.c **** 
 773              		.loc 1 828 7 is_stmt 1 view .LVU232
 831:Drivers/STM32L4xx_HAL_Driver/Src/stm32l4xx_hal_flash_ex.c ****       optr_reg_mask |= FLASH_OPTR_IWDG_SW;
 774              		.loc 1 831 7 view .LVU233
 831:Drivers/STM32L4xx_HAL_Driver/Src/stm32l4xx_hal_flash_ex.c ****       optr_reg_mask |= FLASH_OPTR_IWDG_SW;
 775              		.loc 1 831 35 is_stmt 0 view .LVU234
 776 0058 05F48031 		and	r1, r5, #65536
ARM GAS  /tmp/cc5sw4Du.s 			page 40


 831:Drivers/STM32L4xx_HAL_Driver/Src/stm32l4xx_hal_flash_ex.c ****       optr_reg_mask |= FLASH_OPTR_IWDG_SW;
 777              		.loc 1 831 20 view .LVU235
 778 005c 0B43     		orrs	r3, r3, r1
 779              	.LVL66:
 832:Drivers/STM32L4xx_HAL_Driver/Src/stm32l4xx_hal_flash_ex.c ****     }
 780              		.loc 1 832 7 is_stmt 1 view .LVU236
 832:Drivers/STM32L4xx_HAL_Driver/Src/stm32l4xx_hal_flash_ex.c ****     }
 781              		.loc 1 832 21 is_stmt 0 view .LVU237
 782 005e 42F48032 		orr	r2, r2, #65536
 783              	.LVL67:
 784              	.L60:
 835:Drivers/STM32L4xx_HAL_Driver/Src/stm32l4xx_hal_flash_ex.c ****     {
 785              		.loc 1 835 5 is_stmt 1 view .LVU238
 835:Drivers/STM32L4xx_HAL_Driver/Src/stm32l4xx_hal_flash_ex.c ****     {
 786              		.loc 1 835 7 is_stmt 0 view .LVU239
 787 0062 14F0100F 		tst	r4, #16
 788 0066 04D0     		beq	.L61
 838:Drivers/STM32L4xx_HAL_Driver/Src/stm32l4xx_hal_flash_ex.c **** 
 789              		.loc 1 838 7 is_stmt 1 view .LVU240
 841:Drivers/STM32L4xx_HAL_Driver/Src/stm32l4xx_hal_flash_ex.c ****       optr_reg_mask |= FLASH_OPTR_IWDG_STOP;
 790              		.loc 1 841 7 view .LVU241
 841:Drivers/STM32L4xx_HAL_Driver/Src/stm32l4xx_hal_flash_ex.c ****       optr_reg_mask |= FLASH_OPTR_IWDG_STOP;
 791              		.loc 1 841 35 is_stmt 0 view .LVU242
 792 0068 05F40031 		and	r1, r5, #131072
 841:Drivers/STM32L4xx_HAL_Driver/Src/stm32l4xx_hal_flash_ex.c ****       optr_reg_mask |= FLASH_OPTR_IWDG_STOP;
 793              		.loc 1 841 20 view .LVU243
 794 006c 0B43     		orrs	r3, r3, r1
 795              	.LVL68:
 842:Drivers/STM32L4xx_HAL_Driver/Src/stm32l4xx_hal_flash_ex.c ****     }
 796              		.loc 1 842 7 is_stmt 1 view .LVU244
 842:Drivers/STM32L4xx_HAL_Driver/Src/stm32l4xx_hal_flash_ex.c ****     }
 797              		.loc 1 842 21 is_stmt 0 view .LVU245
 798 006e 42F40032 		orr	r2, r2, #131072
 799              	.LVL69:
 800              	.L61:
 845:Drivers/STM32L4xx_HAL_Driver/Src/stm32l4xx_hal_flash_ex.c ****     {
 801              		.loc 1 845 5 is_stmt 1 view .LVU246
 845:Drivers/STM32L4xx_HAL_Driver/Src/stm32l4xx_hal_flash_ex.c ****     {
 802              		.loc 1 845 7 is_stmt 0 view .LVU247
 803 0072 14F0200F 		tst	r4, #32
 804 0076 04D0     		beq	.L62
 848:Drivers/STM32L4xx_HAL_Driver/Src/stm32l4xx_hal_flash_ex.c **** 
 805              		.loc 1 848 7 is_stmt 1 view .LVU248
 851:Drivers/STM32L4xx_HAL_Driver/Src/stm32l4xx_hal_flash_ex.c ****       optr_reg_mask |= FLASH_OPTR_IWDG_STDBY;
 806              		.loc 1 851 7 view .LVU249
 851:Drivers/STM32L4xx_HAL_Driver/Src/stm32l4xx_hal_flash_ex.c ****       optr_reg_mask |= FLASH_OPTR_IWDG_STDBY;
 807              		.loc 1 851 35 is_stmt 0 view .LVU250
 808 0078 05F48021 		and	r1, r5, #262144
 851:Drivers/STM32L4xx_HAL_Driver/Src/stm32l4xx_hal_flash_ex.c ****       optr_reg_mask |= FLASH_OPTR_IWDG_STDBY;
 809              		.loc 1 851 20 view .LVU251
 810 007c 0B43     		orrs	r3, r3, r1
 811              	.LVL70:
 852:Drivers/STM32L4xx_HAL_Driver/Src/stm32l4xx_hal_flash_ex.c ****     }
 812              		.loc 1 852 7 is_stmt 1 view .LVU252
 852:Drivers/STM32L4xx_HAL_Driver/Src/stm32l4xx_hal_flash_ex.c ****     }
 813              		.loc 1 852 21 is_stmt 0 view .LVU253
 814 007e 42F48022 		orr	r2, r2, #262144
ARM GAS  /tmp/cc5sw4Du.s 			page 41


 815              	.LVL71:
 816              	.L62:
 855:Drivers/STM32L4xx_HAL_Driver/Src/stm32l4xx_hal_flash_ex.c ****     {
 817              		.loc 1 855 5 is_stmt 1 view .LVU254
 855:Drivers/STM32L4xx_HAL_Driver/Src/stm32l4xx_hal_flash_ex.c ****     {
 818              		.loc 1 855 7 is_stmt 0 view .LVU255
 819 0082 14F0400F 		tst	r4, #64
 820 0086 04D0     		beq	.L63
 858:Drivers/STM32L4xx_HAL_Driver/Src/stm32l4xx_hal_flash_ex.c **** 
 821              		.loc 1 858 7 is_stmt 1 view .LVU256
 861:Drivers/STM32L4xx_HAL_Driver/Src/stm32l4xx_hal_flash_ex.c ****       optr_reg_mask |= FLASH_OPTR_WWDG_SW;
 822              		.loc 1 861 7 view .LVU257
 861:Drivers/STM32L4xx_HAL_Driver/Src/stm32l4xx_hal_flash_ex.c ****       optr_reg_mask |= FLASH_OPTR_WWDG_SW;
 823              		.loc 1 861 35 is_stmt 0 view .LVU258
 824 0088 05F40021 		and	r1, r5, #524288
 861:Drivers/STM32L4xx_HAL_Driver/Src/stm32l4xx_hal_flash_ex.c ****       optr_reg_mask |= FLASH_OPTR_WWDG_SW;
 825              		.loc 1 861 20 view .LVU259
 826 008c 0B43     		orrs	r3, r3, r1
 827              	.LVL72:
 862:Drivers/STM32L4xx_HAL_Driver/Src/stm32l4xx_hal_flash_ex.c ****     }
 828              		.loc 1 862 7 is_stmt 1 view .LVU260
 862:Drivers/STM32L4xx_HAL_Driver/Src/stm32l4xx_hal_flash_ex.c ****     }
 829              		.loc 1 862 21 is_stmt 0 view .LVU261
 830 008e 42F40022 		orr	r2, r2, #524288
 831              	.LVL73:
 832              	.L63:
 869:Drivers/STM32L4xx_HAL_Driver/Src/stm32l4xx_hal_flash_ex.c ****     {
 833              		.loc 1 869 5 is_stmt 1 view .LVU262
 869:Drivers/STM32L4xx_HAL_Driver/Src/stm32l4xx_hal_flash_ex.c ****     {
 834              		.loc 1 869 7 is_stmt 0 view .LVU263
 835 0092 14F0800F 		tst	r4, #128
 836 0096 04D0     		beq	.L64
 872:Drivers/STM32L4xx_HAL_Driver/Src/stm32l4xx_hal_flash_ex.c **** 
 837              		.loc 1 872 7 is_stmt 1 view .LVU264
 875:Drivers/STM32L4xx_HAL_Driver/Src/stm32l4xx_hal_flash_ex.c ****       optr_reg_mask |= FLASH_OPTR_BFB2;
 838              		.loc 1 875 7 view .LVU265
 875:Drivers/STM32L4xx_HAL_Driver/Src/stm32l4xx_hal_flash_ex.c ****       optr_reg_mask |= FLASH_OPTR_BFB2;
 839              		.loc 1 875 35 is_stmt 0 view .LVU266
 840 0098 05F48011 		and	r1, r5, #1048576
 875:Drivers/STM32L4xx_HAL_Driver/Src/stm32l4xx_hal_flash_ex.c ****       optr_reg_mask |= FLASH_OPTR_BFB2;
 841              		.loc 1 875 20 view .LVU267
 842 009c 0B43     		orrs	r3, r3, r1
 843              	.LVL74:
 876:Drivers/STM32L4xx_HAL_Driver/Src/stm32l4xx_hal_flash_ex.c ****     }
 844              		.loc 1 876 7 is_stmt 1 view .LVU268
 876:Drivers/STM32L4xx_HAL_Driver/Src/stm32l4xx_hal_flash_ex.c ****     }
 845              		.loc 1 876 21 is_stmt 0 view .LVU269
 846 009e 42F48012 		orr	r2, r2, #1048576
 847              	.LVL75:
 848              	.L64:
 879:Drivers/STM32L4xx_HAL_Driver/Src/stm32l4xx_hal_flash_ex.c ****     {
 849              		.loc 1 879 5 is_stmt 1 view .LVU270
 879:Drivers/STM32L4xx_HAL_Driver/Src/stm32l4xx_hal_flash_ex.c ****     {
 850              		.loc 1 879 7 is_stmt 0 view .LVU271
 851 00a2 14F4807F 		tst	r4, #256
 852 00a6 04D0     		beq	.L65
 890:Drivers/STM32L4xx_HAL_Driver/Src/stm32l4xx_hal_flash_ex.c **** 
ARM GAS  /tmp/cc5sw4Du.s 			page 42


 853              		.loc 1 890 7 is_stmt 1 view .LVU272
 893:Drivers/STM32L4xx_HAL_Driver/Src/stm32l4xx_hal_flash_ex.c ****       optr_reg_mask |= FLASH_OPTR_DUALBANK;
 854              		.loc 1 893 7 view .LVU273
 893:Drivers/STM32L4xx_HAL_Driver/Src/stm32l4xx_hal_flash_ex.c ****       optr_reg_mask |= FLASH_OPTR_DUALBANK;
 855              		.loc 1 893 35 is_stmt 0 view .LVU274
 856 00a8 05F40011 		and	r1, r5, #2097152
 893:Drivers/STM32L4xx_HAL_Driver/Src/stm32l4xx_hal_flash_ex.c ****       optr_reg_mask |= FLASH_OPTR_DUALBANK;
 857              		.loc 1 893 20 view .LVU275
 858 00ac 0B43     		orrs	r3, r3, r1
 859              	.LVL76:
 894:Drivers/STM32L4xx_HAL_Driver/Src/stm32l4xx_hal_flash_ex.c **** #endif
 860              		.loc 1 894 7 is_stmt 1 view .LVU276
 894:Drivers/STM32L4xx_HAL_Driver/Src/stm32l4xx_hal_flash_ex.c **** #endif
 861              		.loc 1 894 21 is_stmt 0 view .LVU277
 862 00ae 42F40012 		orr	r2, r2, #2097152
 863              	.LVL77:
 864              	.L65:
 899:Drivers/STM32L4xx_HAL_Driver/Src/stm32l4xx_hal_flash_ex.c ****     {
 865              		.loc 1 899 5 is_stmt 1 view .LVU278
 899:Drivers/STM32L4xx_HAL_Driver/Src/stm32l4xx_hal_flash_ex.c ****     {
 866              		.loc 1 899 7 is_stmt 0 view .LVU279
 867 00b2 14F4007F 		tst	r4, #512
 868 00b6 04D0     		beq	.L66
 902:Drivers/STM32L4xx_HAL_Driver/Src/stm32l4xx_hal_flash_ex.c **** 
 869              		.loc 1 902 7 is_stmt 1 view .LVU280
 905:Drivers/STM32L4xx_HAL_Driver/Src/stm32l4xx_hal_flash_ex.c ****       optr_reg_mask |= FLASH_OPTR_nBOOT1;
 870              		.loc 1 905 7 view .LVU281
 905:Drivers/STM32L4xx_HAL_Driver/Src/stm32l4xx_hal_flash_ex.c ****       optr_reg_mask |= FLASH_OPTR_nBOOT1;
 871              		.loc 1 905 35 is_stmt 0 view .LVU282
 872 00b8 05F40001 		and	r1, r5, #8388608
 905:Drivers/STM32L4xx_HAL_Driver/Src/stm32l4xx_hal_flash_ex.c ****       optr_reg_mask |= FLASH_OPTR_nBOOT1;
 873              		.loc 1 905 20 view .LVU283
 874 00bc 0B43     		orrs	r3, r3, r1
 875              	.LVL78:
 906:Drivers/STM32L4xx_HAL_Driver/Src/stm32l4xx_hal_flash_ex.c ****     }
 876              		.loc 1 906 7 is_stmt 1 view .LVU284
 906:Drivers/STM32L4xx_HAL_Driver/Src/stm32l4xx_hal_flash_ex.c ****     }
 877              		.loc 1 906 21 is_stmt 0 view .LVU285
 878 00be 42F40002 		orr	r2, r2, #8388608
 879              	.LVL79:
 880              	.L66:
 909:Drivers/STM32L4xx_HAL_Driver/Src/stm32l4xx_hal_flash_ex.c ****     {
 881              		.loc 1 909 5 is_stmt 1 view .LVU286
 909:Drivers/STM32L4xx_HAL_Driver/Src/stm32l4xx_hal_flash_ex.c ****     {
 882              		.loc 1 909 7 is_stmt 0 view .LVU287
 883 00c2 14F4806F 		tst	r4, #1024
 884 00c6 04D0     		beq	.L67
 912:Drivers/STM32L4xx_HAL_Driver/Src/stm32l4xx_hal_flash_ex.c **** 
 885              		.loc 1 912 7 is_stmt 1 view .LVU288
 915:Drivers/STM32L4xx_HAL_Driver/Src/stm32l4xx_hal_flash_ex.c ****       optr_reg_mask |= FLASH_OPTR_SRAM2_PE;
 886              		.loc 1 915 7 view .LVU289
 915:Drivers/STM32L4xx_HAL_Driver/Src/stm32l4xx_hal_flash_ex.c ****       optr_reg_mask |= FLASH_OPTR_SRAM2_PE;
 887              		.loc 1 915 35 is_stmt 0 view .LVU290
 888 00c8 05F08071 		and	r1, r5, #16777216
 915:Drivers/STM32L4xx_HAL_Driver/Src/stm32l4xx_hal_flash_ex.c ****       optr_reg_mask |= FLASH_OPTR_SRAM2_PE;
 889              		.loc 1 915 20 view .LVU291
 890 00cc 0B43     		orrs	r3, r3, r1
ARM GAS  /tmp/cc5sw4Du.s 			page 43


 891              	.LVL80:
 916:Drivers/STM32L4xx_HAL_Driver/Src/stm32l4xx_hal_flash_ex.c ****     }
 892              		.loc 1 916 7 is_stmt 1 view .LVU292
 916:Drivers/STM32L4xx_HAL_Driver/Src/stm32l4xx_hal_flash_ex.c ****     }
 893              		.loc 1 916 21 is_stmt 0 view .LVU293
 894 00ce 42F08072 		orr	r2, r2, #16777216
 895              	.LVL81:
 896              	.L67:
 919:Drivers/STM32L4xx_HAL_Driver/Src/stm32l4xx_hal_flash_ex.c ****     {
 897              		.loc 1 919 5 is_stmt 1 view .LVU294
 919:Drivers/STM32L4xx_HAL_Driver/Src/stm32l4xx_hal_flash_ex.c ****     {
 898              		.loc 1 919 7 is_stmt 0 view .LVU295
 899 00d2 14F4006F 		tst	r4, #2048
 900 00d6 04D0     		beq	.L68
 922:Drivers/STM32L4xx_HAL_Driver/Src/stm32l4xx_hal_flash_ex.c **** 
 901              		.loc 1 922 7 is_stmt 1 view .LVU296
 925:Drivers/STM32L4xx_HAL_Driver/Src/stm32l4xx_hal_flash_ex.c ****       optr_reg_mask |= FLASH_OPTR_SRAM2_RST;
 902              		.loc 1 925 7 view .LVU297
 925:Drivers/STM32L4xx_HAL_Driver/Src/stm32l4xx_hal_flash_ex.c ****       optr_reg_mask |= FLASH_OPTR_SRAM2_RST;
 903              		.loc 1 925 35 is_stmt 0 view .LVU298
 904 00d8 05F00075 		and	r5, r5, #33554432
 905              	.LVL82:
 925:Drivers/STM32L4xx_HAL_Driver/Src/stm32l4xx_hal_flash_ex.c ****       optr_reg_mask |= FLASH_OPTR_SRAM2_RST;
 906              		.loc 1 925 20 view .LVU299
 907 00dc 2B43     		orrs	r3, r3, r5
 908              	.LVL83:
 926:Drivers/STM32L4xx_HAL_Driver/Src/stm32l4xx_hal_flash_ex.c ****     }
 909              		.loc 1 926 7 is_stmt 1 view .LVU300
 926:Drivers/STM32L4xx_HAL_Driver/Src/stm32l4xx_hal_flash_ex.c ****     }
 910              		.loc 1 926 21 is_stmt 0 view .LVU301
 911 00de 42F00072 		orr	r2, r2, #33554432
 912              	.LVL84:
 913              	.L68:
 956:Drivers/STM32L4xx_HAL_Driver/Src/stm32l4xx_hal_flash_ex.c **** 
 914              		.loc 1 956 5 is_stmt 1 view .LVU302
 915 00e2 0B4C     		ldr	r4, .L71
 916              	.LVL85:
 956:Drivers/STM32L4xx_HAL_Driver/Src/stm32l4xx_hal_flash_ex.c **** 
 917              		.loc 1 956 5 is_stmt 0 view .LVU303
 918 00e4 216A     		ldr	r1, [r4, #32]
 919 00e6 21EA0202 		bic	r2, r1, r2
 920              	.LVL86:
 956:Drivers/STM32L4xx_HAL_Driver/Src/stm32l4xx_hal_flash_ex.c **** 
 921              		.loc 1 956 5 view .LVU304
 922 00ea 1343     		orrs	r3, r3, r2
 923              	.LVL87:
 956:Drivers/STM32L4xx_HAL_Driver/Src/stm32l4xx_hal_flash_ex.c **** 
 924              		.loc 1 956 5 view .LVU305
 925 00ec 2362     		str	r3, [r4, #32]
 959:Drivers/STM32L4xx_HAL_Driver/Src/stm32l4xx_hal_flash_ex.c **** 
 926              		.loc 1 959 5 is_stmt 1 view .LVU306
 927 00ee 6369     		ldr	r3, [r4, #20]
 928 00f0 43F40033 		orr	r3, r3, #131072
 929 00f4 6361     		str	r3, [r4, #20]
 962:Drivers/STM32L4xx_HAL_Driver/Src/stm32l4xx_hal_flash_ex.c **** 
 930              		.loc 1 962 5 view .LVU307
 962:Drivers/STM32L4xx_HAL_Driver/Src/stm32l4xx_hal_flash_ex.c **** 
ARM GAS  /tmp/cc5sw4Du.s 			page 44


 931              		.loc 1 962 14 is_stmt 0 view .LVU308
 932 00f6 4CF25030 		movw	r0, #50000
 933              	.LVL88:
 962:Drivers/STM32L4xx_HAL_Driver/Src/stm32l4xx_hal_flash_ex.c **** 
 934              		.loc 1 962 14 view .LVU309
 935 00fa FFF7FEFF 		bl	FLASH_WaitForLastOperation
 936              	.LVL89:
 937 00fe 0346     		mov	r3, r0
 938              	.LVL90:
 965:Drivers/STM32L4xx_HAL_Driver/Src/stm32l4xx_hal_flash_ex.c ****   }
 939              		.loc 1 965 5 is_stmt 1 view .LVU310
 940 0100 6269     		ldr	r2, [r4, #20]
 941 0102 22F40032 		bic	r2, r2, #131072
 942 0106 6261     		str	r2, [r4, #20]
 943              	.LVL91:
 944              	.L55:
 968:Drivers/STM32L4xx_HAL_Driver/Src/stm32l4xx_hal_flash_ex.c **** }
 945              		.loc 1 968 3 view .LVU311
 969:Drivers/STM32L4xx_HAL_Driver/Src/stm32l4xx_hal_flash_ex.c **** 
 946              		.loc 1 969 1 is_stmt 0 view .LVU312
 947 0108 1846     		mov	r0, r3
 948 010a 38BD     		pop	{r3, r4, r5, pc}
 949              	.LVL92:
 950              	.L69:
 774:Drivers/STM32L4xx_HAL_Driver/Src/stm32l4xx_hal_flash_ex.c ****   HAL_StatusTypeDef status;
 951              		.loc 1 774 12 view .LVU313
 952 010c 1A46     		mov	r2, r3
 953 010e 88E7     		b	.L56
 954              	.L72:
 955              		.align	2
 956              	.L71:
 957 0110 00200240 		.word	1073881088
 958              		.cfi_endproc
 959              	.LFE326:
 961              		.section	.text.FLASH_OB_PCROPConfig,"ax",%progbits
 962              		.align	1
 963              		.syntax unified
 964              		.thumb
 965              		.thumb_func
 966              		.fpu fpv4-sp-d16
 968              	FLASH_OB_PCROPConfig:
 969              	.LVL93:
 970              	.LFB327:
 992:Drivers/STM32L4xx_HAL_Driver/Src/stm32l4xx_hal_flash_ex.c ****   HAL_StatusTypeDef status;
 971              		.loc 1 992 1 is_stmt 1 view -0
 972              		.cfi_startproc
 973              		@ args = 0, pretend = 0, frame = 0
 974              		@ frame_needed = 0, uses_anonymous_args = 0
 992:Drivers/STM32L4xx_HAL_Driver/Src/stm32l4xx_hal_flash_ex.c ****   HAL_StatusTypeDef status;
 975              		.loc 1 992 1 is_stmt 0 view .LVU315
 976 0000 70B5     		push	{r4, r5, r6, lr}
 977              		.cfi_def_cfa_offset 16
 978              		.cfi_offset 4, -16
 979              		.cfi_offset 5, -12
 980              		.cfi_offset 6, -8
 981              		.cfi_offset 14, -4
 982 0002 0546     		mov	r5, r0
ARM GAS  /tmp/cc5sw4Du.s 			page 45


 983 0004 0C46     		mov	r4, r1
 984 0006 1646     		mov	r6, r2
 993:Drivers/STM32L4xx_HAL_Driver/Src/stm32l4xx_hal_flash_ex.c ****   uint32_t reg_value;
 985              		.loc 1 993 3 is_stmt 1 view .LVU316
 994:Drivers/STM32L4xx_HAL_Driver/Src/stm32l4xx_hal_flash_ex.c ****   uint32_t bank1_addr;
 986              		.loc 1 994 3 view .LVU317
 995:Drivers/STM32L4xx_HAL_Driver/Src/stm32l4xx_hal_flash_ex.c **** #if defined (STM32L471xx) || defined (STM32L475xx) || defined (STM32L476xx) || defined (STM32L485xx
 987              		.loc 1 995 3 view .LVU318
1000:Drivers/STM32L4xx_HAL_Driver/Src/stm32l4xx_hal_flash_ex.c **** #endif
 988              		.loc 1 1000 3 view .LVU319
1004:Drivers/STM32L4xx_HAL_Driver/Src/stm32l4xx_hal_flash_ex.c ****   assert_param(IS_OB_PCROP_RDP(PCROPConfig & FLASH_PCROP1ER_PCROP_RDP));
 989              		.loc 1 1004 3 view .LVU320
1005:Drivers/STM32L4xx_HAL_Driver/Src/stm32l4xx_hal_flash_ex.c ****   assert_param(IS_FLASH_MAIN_MEM_ADDRESS(PCROPStartAddr));
 990              		.loc 1 1005 3 view .LVU321
1006:Drivers/STM32L4xx_HAL_Driver/Src/stm32l4xx_hal_flash_ex.c ****   assert_param(IS_FLASH_MAIN_MEM_ADDRESS(PCROPEndAddr));
 991              		.loc 1 1006 3 view .LVU322
1007:Drivers/STM32L4xx_HAL_Driver/Src/stm32l4xx_hal_flash_ex.c **** 
 992              		.loc 1 1007 3 view .LVU323
1010:Drivers/STM32L4xx_HAL_Driver/Src/stm32l4xx_hal_flash_ex.c **** 
 993              		.loc 1 1010 3 view .LVU324
1010:Drivers/STM32L4xx_HAL_Driver/Src/stm32l4xx_hal_flash_ex.c **** 
 994              		.loc 1 1010 12 is_stmt 0 view .LVU325
 995 0008 4CF25030 		movw	r0, #50000
 996              	.LVL94:
1010:Drivers/STM32L4xx_HAL_Driver/Src/stm32l4xx_hal_flash_ex.c **** 
 997              		.loc 1 1010 12 view .LVU326
 998 000c FFF7FEFF 		bl	FLASH_WaitForLastOperation
 999              	.LVL95:
1012:Drivers/STM32L4xx_HAL_Driver/Src/stm32l4xx_hal_flash_ex.c ****   {
 1000              		.loc 1 1012 3 is_stmt 1 view .LVU327
1012:Drivers/STM32L4xx_HAL_Driver/Src/stm32l4xx_hal_flash_ex.c ****   {
 1001              		.loc 1 1012 5 is_stmt 0 view .LVU328
 1002 0010 0346     		mov	r3, r0
 1003 0012 68BB     		cbnz	r0, .L74
1019:Drivers/STM32L4xx_HAL_Driver/Src/stm32l4xx_hal_flash_ex.c ****     {
 1004              		.loc 1 1019 5 is_stmt 1 view .LVU329
1019:Drivers/STM32L4xx_HAL_Driver/Src/stm32l4xx_hal_flash_ex.c ****     {
 1005              		.loc 1 1019 9 is_stmt 0 view .LVU330
 1006 0014 334B     		ldr	r3, .L84
 1007 0016 1B68     		ldr	r3, [r3]
1019:Drivers/STM32L4xx_HAL_Driver/Src/stm32l4xx_hal_flash_ex.c ****     {
 1008              		.loc 1 1019 8 view .LVU331
 1009 0018 13F4807F 		tst	r3, #256
 1010 001c 2AD1     		bne	.L75
1021:Drivers/STM32L4xx_HAL_Driver/Src/stm32l4xx_hal_flash_ex.c ****       bank2_addr = FLASH_BASE + FLASH_BANK_SIZE;
 1011              		.loc 1 1021 7 is_stmt 1 view .LVU332
 1012              	.LVL96:
1022:Drivers/STM32L4xx_HAL_Driver/Src/stm32l4xx_hal_flash_ex.c ****     }
 1013              		.loc 1 1022 7 view .LVU333
1022:Drivers/STM32L4xx_HAL_Driver/Src/stm32l4xx_hal_flash_ex.c ****     }
 1014              		.loc 1 1022 33 is_stmt 0 view .LVU334
 1015 001e 324B     		ldr	r3, .L84+4
 1016 0020 1B68     		ldr	r3, [r3]
 1017 0022 99B2     		uxth	r1, r3
1022:Drivers/STM32L4xx_HAL_Driver/Src/stm32l4xx_hal_flash_ex.c ****     }
 1018              		.loc 1 1022 31 view .LVU335
 1019 0024 4FF6FF72 		movw	r2, #65535
ARM GAS  /tmp/cc5sw4Du.s 			page 46


 1020 0028 9142     		cmp	r1, r2
 1021 002a 32D0     		beq	.L79
1022:Drivers/STM32L4xx_HAL_Driver/Src/stm32l4xx_hal_flash_ex.c ****     }
 1022              		.loc 1 1022 33 discriminator 1 view .LVU336
 1023 002c 2F4A     		ldr	r2, .L84+8
 1024 002e 02EA4322 		and	r2, r2, r3, lsl #9
1022:Drivers/STM32L4xx_HAL_Driver/Src/stm32l4xx_hal_flash_ex.c ****     }
 1025              		.loc 1 1022 31 discriminator 1 view .LVU337
 1026 0032 02F10063 		add	r3, r2, #134217728
1021:Drivers/STM32L4xx_HAL_Driver/Src/stm32l4xx_hal_flash_ex.c ****       bank2_addr = FLASH_BASE + FLASH_BANK_SIZE;
 1027              		.loc 1 1021 18 discriminator 1 view .LVU338
 1028 0036 4FF00062 		mov	r2, #134217728
 1029              	.LVL97:
 1030              	.L76:
1062:Drivers/STM32L4xx_HAL_Driver/Src/stm32l4xx_hal_flash_ex.c ****       {
 1031              		.loc 1 1062 7 is_stmt 1 view .LVU339
1062:Drivers/STM32L4xx_HAL_Driver/Src/stm32l4xx_hal_flash_ex.c ****       {
 1032              		.loc 1 1062 23 is_stmt 0 view .LVU340
 1033 003a 05F00301 		and	r1, r5, #3
1062:Drivers/STM32L4xx_HAL_Driver/Src/stm32l4xx_hal_flash_ex.c ****       {
 1034              		.loc 1 1062 9 view .LVU341
 1035 003e 0129     		cmp	r1, #1
 1036 0040 2FD0     		beq	.L82
1074:Drivers/STM32L4xx_HAL_Driver/Src/stm32l4xx_hal_flash_ex.c ****       {
 1037              		.loc 1 1074 12 is_stmt 1 view .LVU342
1074:Drivers/STM32L4xx_HAL_Driver/Src/stm32l4xx_hal_flash_ex.c ****       {
 1038              		.loc 1 1074 14 is_stmt 0 view .LVU343
 1039 0042 0229     		cmp	r1, #2
 1040 0044 3DD0     		beq	.L83
 1041              	.LVL98:
 1042              	.L78:
1086:Drivers/STM32L4xx_HAL_Driver/Src/stm32l4xx_hal_flash_ex.c ****     }
 1043              		.loc 1 1086 7 is_stmt 1 view .LVU344
1089:Drivers/STM32L4xx_HAL_Driver/Src/stm32l4xx_hal_flash_ex.c **** 
 1044              		.loc 1 1089 5 view .LVU345
 1045 0046 2A4C     		ldr	r4, .L84+12
 1046 0048 A06A     		ldr	r0, [r4, #40]
 1047              	.LVL99:
1089:Drivers/STM32L4xx_HAL_Driver/Src/stm32l4xx_hal_flash_ex.c **** 
 1048              		.loc 1 1089 5 is_stmt 0 view .LVU346
 1049 004a 20F00040 		bic	r0, r0, #-2147483648
 1050 004e 05F00045 		and	r5, r5, #-2147483648
 1051              	.LVL100:
1089:Drivers/STM32L4xx_HAL_Driver/Src/stm32l4xx_hal_flash_ex.c **** 
 1052              		.loc 1 1089 5 view .LVU347
 1053 0052 2843     		orrs	r0, r0, r5
 1054 0054 A062     		str	r0, [r4, #40]
1092:Drivers/STM32L4xx_HAL_Driver/Src/stm32l4xx_hal_flash_ex.c **** 
 1055              		.loc 1 1092 5 is_stmt 1 view .LVU348
 1056 0056 6369     		ldr	r3, [r4, #20]
 1057 0058 43F40033 		orr	r3, r3, #131072
 1058 005c 6361     		str	r3, [r4, #20]
1095:Drivers/STM32L4xx_HAL_Driver/Src/stm32l4xx_hal_flash_ex.c **** 
 1059              		.loc 1 1095 5 view .LVU349
1095:Drivers/STM32L4xx_HAL_Driver/Src/stm32l4xx_hal_flash_ex.c **** 
 1060              		.loc 1 1095 14 is_stmt 0 view .LVU350
 1061 005e 4CF25030 		movw	r0, #50000
ARM GAS  /tmp/cc5sw4Du.s 			page 47


 1062 0062 FFF7FEFF 		bl	FLASH_WaitForLastOperation
 1063              	.LVL101:
 1064 0066 0346     		mov	r3, r0
 1065              	.LVL102:
1098:Drivers/STM32L4xx_HAL_Driver/Src/stm32l4xx_hal_flash_ex.c ****   }
 1066              		.loc 1 1098 5 is_stmt 1 view .LVU351
 1067 0068 6269     		ldr	r2, [r4, #20]
 1068 006a 22F40032 		bic	r2, r2, #131072
 1069 006e 6261     		str	r2, [r4, #20]
 1070              	.LVL103:
 1071              	.L74:
1101:Drivers/STM32L4xx_HAL_Driver/Src/stm32l4xx_hal_flash_ex.c **** }
 1072              		.loc 1 1101 3 view .LVU352
1102:Drivers/STM32L4xx_HAL_Driver/Src/stm32l4xx_hal_flash_ex.c **** 
 1073              		.loc 1 1102 1 is_stmt 0 view .LVU353
 1074 0070 1846     		mov	r0, r3
 1075 0072 70BD     		pop	{r4, r5, r6, pc}
 1076              	.LVL104:
 1077              	.L75:
1026:Drivers/STM32L4xx_HAL_Driver/Src/stm32l4xx_hal_flash_ex.c ****       bank2_addr = FLASH_BASE;
 1078              		.loc 1 1026 7 is_stmt 1 view .LVU354
1026:Drivers/STM32L4xx_HAL_Driver/Src/stm32l4xx_hal_flash_ex.c ****       bank2_addr = FLASH_BASE;
 1079              		.loc 1 1026 33 is_stmt 0 view .LVU355
 1080 0074 1C4B     		ldr	r3, .L84+4
 1081 0076 1B68     		ldr	r3, [r3]
 1082 0078 99B2     		uxth	r1, r3
1026:Drivers/STM32L4xx_HAL_Driver/Src/stm32l4xx_hal_flash_ex.c ****       bank2_addr = FLASH_BASE;
 1083              		.loc 1 1026 31 view .LVU356
 1084 007a 4FF6FF72 		movw	r2, #65535
 1085 007e 9142     		cmp	r1, r2
 1086 0080 0BD0     		beq	.L80
1026:Drivers/STM32L4xx_HAL_Driver/Src/stm32l4xx_hal_flash_ex.c ****       bank2_addr = FLASH_BASE;
 1087              		.loc 1 1026 33 discriminator 1 view .LVU357
 1088 0082 1A4A     		ldr	r2, .L84+8
 1089 0084 02EA4322 		and	r2, r2, r3, lsl #9
1026:Drivers/STM32L4xx_HAL_Driver/Src/stm32l4xx_hal_flash_ex.c ****       bank2_addr = FLASH_BASE;
 1090              		.loc 1 1026 31 discriminator 1 view .LVU358
 1091 0088 02F10062 		add	r2, r2, #134217728
1027:Drivers/STM32L4xx_HAL_Driver/Src/stm32l4xx_hal_flash_ex.c ****     }
 1092              		.loc 1 1027 18 discriminator 1 view .LVU359
 1093 008c 4FF00063 		mov	r3, #134217728
 1094 0090 D3E7     		b	.L76
 1095              	.LVL105:
 1096              	.L79:
1022:Drivers/STM32L4xx_HAL_Driver/Src/stm32l4xx_hal_flash_ex.c ****     }
 1097              		.loc 1 1022 31 view .LVU360
 1098 0092 184B     		ldr	r3, .L84+16
1021:Drivers/STM32L4xx_HAL_Driver/Src/stm32l4xx_hal_flash_ex.c ****       bank2_addr = FLASH_BASE + FLASH_BANK_SIZE;
 1099              		.loc 1 1021 18 view .LVU361
 1100 0094 4FF00062 		mov	r2, #134217728
 1101 0098 CFE7     		b	.L76
 1102              	.LVL106:
 1103              	.L80:
1027:Drivers/STM32L4xx_HAL_Driver/Src/stm32l4xx_hal_flash_ex.c ****     }
 1104              		.loc 1 1027 18 view .LVU362
 1105 009a 4FF00063 		mov	r3, #134217728
1026:Drivers/STM32L4xx_HAL_Driver/Src/stm32l4xx_hal_flash_ex.c ****       bank2_addr = FLASH_BASE;
ARM GAS  /tmp/cc5sw4Du.s 			page 48


 1106              		.loc 1 1026 31 view .LVU363
 1107 009e 154A     		ldr	r2, .L84+16
 1108 00a0 CBE7     		b	.L76
 1109              	.LVL107:
 1110              	.L82:
1064:Drivers/STM32L4xx_HAL_Driver/Src/stm32l4xx_hal_flash_ex.c ****         MODIFY_REG(FLASH->PCROP1SR, FLASH_PCROP1SR_PCROP1_STRT, reg_value);
 1111              		.loc 1 1064 9 is_stmt 1 view .LVU364
1064:Drivers/STM32L4xx_HAL_Driver/Src/stm32l4xx_hal_flash_ex.c ****         MODIFY_REG(FLASH->PCROP1SR, FLASH_PCROP1SR_PCROP1_STRT, reg_value);
 1112              		.loc 1 1064 38 is_stmt 0 view .LVU365
 1113 00a2 A41A     		subs	r4, r4, r2
 1114              	.LVL108:
1065:Drivers/STM32L4xx_HAL_Driver/Src/stm32l4xx_hal_flash_ex.c **** 
 1115              		.loc 1 1065 9 is_stmt 1 view .LVU366
 1116 00a4 1249     		ldr	r1, .L84+12
 1117 00a6 4B6A     		ldr	r3, [r1, #36]
 1118              	.LVL109:
1065:Drivers/STM32L4xx_HAL_Driver/Src/stm32l4xx_hal_flash_ex.c **** 
 1119              		.loc 1 1065 9 is_stmt 0 view .LVU367
 1120 00a8 1B0C     		lsrs	r3, r3, #16
 1121 00aa 1B04     		lsls	r3, r3, #16
 1122 00ac 43EAD403 		orr	r3, r3, r4, lsr #3
 1123 00b0 4B62     		str	r3, [r1, #36]
1067:Drivers/STM32L4xx_HAL_Driver/Src/stm32l4xx_hal_flash_ex.c ****         MODIFY_REG(FLASH->PCROP1ER, FLASH_PCROP1ER_PCROP1_END, reg_value);
 1124              		.loc 1 1067 9 is_stmt 1 view .LVU368
1067:Drivers/STM32L4xx_HAL_Driver/Src/stm32l4xx_hal_flash_ex.c ****         MODIFY_REG(FLASH->PCROP1ER, FLASH_PCROP1ER_PCROP1_END, reg_value);
 1125              		.loc 1 1067 36 is_stmt 0 view .LVU369
 1126 00b2 B21A     		subs	r2, r6, r2
 1127              	.LVL110:
1068:Drivers/STM32L4xx_HAL_Driver/Src/stm32l4xx_hal_flash_ex.c ****       }
 1128              		.loc 1 1068 9 is_stmt 1 view .LVU370
 1129 00b4 8B6A     		ldr	r3, [r1, #40]
 1130 00b6 1B0C     		lsrs	r3, r3, #16
 1131 00b8 1B04     		lsls	r3, r3, #16
 1132 00ba 43EAD202 		orr	r2, r3, r2, lsr #3
 1133              	.LVL111:
1068:Drivers/STM32L4xx_HAL_Driver/Src/stm32l4xx_hal_flash_ex.c ****       }
 1134              		.loc 1 1068 9 is_stmt 0 view .LVU371
 1135 00be 8A62     		str	r2, [r1, #40]
 1136 00c0 C1E7     		b	.L78
 1137              	.LVL112:
 1138              	.L83:
1076:Drivers/STM32L4xx_HAL_Driver/Src/stm32l4xx_hal_flash_ex.c ****         MODIFY_REG(FLASH->PCROP2SR, FLASH_PCROP2SR_PCROP2_STRT, reg_value);
 1139              		.loc 1 1076 9 is_stmt 1 view .LVU372
1076:Drivers/STM32L4xx_HAL_Driver/Src/stm32l4xx_hal_flash_ex.c ****         MODIFY_REG(FLASH->PCROP2SR, FLASH_PCROP2SR_PCROP2_STRT, reg_value);
 1140              		.loc 1 1076 38 is_stmt 0 view .LVU373
 1141 00c2 E41A     		subs	r4, r4, r3
 1142              	.LVL113:
1077:Drivers/STM32L4xx_HAL_Driver/Src/stm32l4xx_hal_flash_ex.c **** 
 1143              		.loc 1 1077 9 is_stmt 1 view .LVU374
 1144 00c4 0A49     		ldr	r1, .L84+12
 1145 00c6 4A6C     		ldr	r2, [r1, #68]
 1146              	.LVL114:
1077:Drivers/STM32L4xx_HAL_Driver/Src/stm32l4xx_hal_flash_ex.c **** 
 1147              		.loc 1 1077 9 is_stmt 0 view .LVU375
 1148 00c8 120C     		lsrs	r2, r2, #16
 1149 00ca 1204     		lsls	r2, r2, #16
 1150 00cc 42EAD404 		orr	r4, r2, r4, lsr #3
ARM GAS  /tmp/cc5sw4Du.s 			page 49


 1151              	.LVL115:
1077:Drivers/STM32L4xx_HAL_Driver/Src/stm32l4xx_hal_flash_ex.c **** 
 1152              		.loc 1 1077 9 view .LVU376
 1153 00d0 4C64     		str	r4, [r1, #68]
1079:Drivers/STM32L4xx_HAL_Driver/Src/stm32l4xx_hal_flash_ex.c ****         MODIFY_REG(FLASH->PCROP2ER, FLASH_PCROP2ER_PCROP2_END, reg_value);
 1154              		.loc 1 1079 9 is_stmt 1 view .LVU377
1079:Drivers/STM32L4xx_HAL_Driver/Src/stm32l4xx_hal_flash_ex.c ****         MODIFY_REG(FLASH->PCROP2ER, FLASH_PCROP2ER_PCROP2_END, reg_value);
 1155              		.loc 1 1079 36 is_stmt 0 view .LVU378
 1156 00d2 F21A     		subs	r2, r6, r3
 1157              	.LVL116:
1080:Drivers/STM32L4xx_HAL_Driver/Src/stm32l4xx_hal_flash_ex.c ****       }
 1158              		.loc 1 1080 9 is_stmt 1 view .LVU379
 1159 00d4 8B6C     		ldr	r3, [r1, #72]
 1160              	.LVL117:
1080:Drivers/STM32L4xx_HAL_Driver/Src/stm32l4xx_hal_flash_ex.c ****       }
 1161              		.loc 1 1080 9 is_stmt 0 view .LVU380
 1162 00d6 1B0C     		lsrs	r3, r3, #16
 1163 00d8 1B04     		lsls	r3, r3, #16
 1164 00da 43EAD202 		orr	r2, r3, r2, lsr #3
 1165              	.LVL118:
1080:Drivers/STM32L4xx_HAL_Driver/Src/stm32l4xx_hal_flash_ex.c ****       }
 1166              		.loc 1 1080 9 view .LVU381
 1167 00de 8A64     		str	r2, [r1, #72]
 1168 00e0 B1E7     		b	.L78
 1169              	.L85:
 1170 00e2 00BF     		.align	2
 1171              	.L84:
 1172 00e4 00000140 		.word	1073807360
 1173 00e8 E075FF1F 		.word	536835552
 1174 00ec 00FEFF01 		.word	33553920
 1175 00f0 00200240 		.word	1073881088
 1176 00f4 00000808 		.word	134742016
 1177              		.cfi_endproc
 1178              	.LFE327:
 1180              		.section	.text.HAL_FLASHEx_OBProgram,"ax",%progbits
 1181              		.align	1
 1182              		.global	HAL_FLASHEx_OBProgram
 1183              		.syntax unified
 1184              		.thumb
 1185              		.thumb_func
 1186              		.fpu fpv4-sp-d16
 1188              	HAL_FLASHEx_OBProgram:
 1189              	.LVL119:
 1190              	.LFB319:
 298:Drivers/STM32L4xx_HAL_Driver/Src/stm32l4xx_hal_flash_ex.c ****   HAL_StatusTypeDef status = HAL_OK;
 1191              		.loc 1 298 1 is_stmt 1 view -0
 1192              		.cfi_startproc
 1193              		@ args = 0, pretend = 0, frame = 0
 1194              		@ frame_needed = 0, uses_anonymous_args = 0
 298:Drivers/STM32L4xx_HAL_Driver/Src/stm32l4xx_hal_flash_ex.c ****   HAL_StatusTypeDef status = HAL_OK;
 1195              		.loc 1 298 1 is_stmt 0 view .LVU383
 1196 0000 38B5     		push	{r3, r4, r5, lr}
 1197              		.cfi_def_cfa_offset 16
 1198              		.cfi_offset 3, -16
 1199              		.cfi_offset 4, -12
 1200              		.cfi_offset 5, -8
 1201              		.cfi_offset 14, -4
ARM GAS  /tmp/cc5sw4Du.s 			page 50


 299:Drivers/STM32L4xx_HAL_Driver/Src/stm32l4xx_hal_flash_ex.c **** 
 1202              		.loc 1 299 3 is_stmt 1 view .LVU384
 1203              	.LVL120:
 302:Drivers/STM32L4xx_HAL_Driver/Src/stm32l4xx_hal_flash_ex.c **** 
 1204              		.loc 1 302 3 view .LVU385
 302:Drivers/STM32L4xx_HAL_Driver/Src/stm32l4xx_hal_flash_ex.c **** 
 1205              		.loc 1 302 3 view .LVU386
 1206 0002 234B     		ldr	r3, .L103
 1207 0004 1B78     		ldrb	r3, [r3]	@ zero_extendqisi2
 1208 0006 012B     		cmp	r3, #1
 1209 0008 3FD0     		beq	.L92
 1210 000a 0446     		mov	r4, r0
 302:Drivers/STM32L4xx_HAL_Driver/Src/stm32l4xx_hal_flash_ex.c **** 
 1211              		.loc 1 302 3 discriminator 2 view .LVU387
 1212 000c 204B     		ldr	r3, .L103
 1213 000e 0122     		movs	r2, #1
 1214 0010 1A70     		strb	r2, [r3]
 305:Drivers/STM32L4xx_HAL_Driver/Src/stm32l4xx_hal_flash_ex.c **** 
 1215              		.loc 1 305 3 discriminator 2 view .LVU388
 307:Drivers/STM32L4xx_HAL_Driver/Src/stm32l4xx_hal_flash_ex.c **** 
 1216              		.loc 1 307 3 discriminator 2 view .LVU389
 307:Drivers/STM32L4xx_HAL_Driver/Src/stm32l4xx_hal_flash_ex.c **** 
 1217              		.loc 1 307 20 is_stmt 0 discriminator 2 view .LVU390
 1218 0012 0022     		movs	r2, #0
 1219 0014 5A60     		str	r2, [r3, #4]
 310:Drivers/STM32L4xx_HAL_Driver/Src/stm32l4xx_hal_flash_ex.c ****   {
 1220              		.loc 1 310 3 is_stmt 1 discriminator 2 view .LVU391
 310:Drivers/STM32L4xx_HAL_Driver/Src/stm32l4xx_hal_flash_ex.c ****   {
 1221              		.loc 1 310 14 is_stmt 0 discriminator 2 view .LVU392
 1222 0016 0368     		ldr	r3, [r0]
 310:Drivers/STM32L4xx_HAL_Driver/Src/stm32l4xx_hal_flash_ex.c ****   {
 1223              		.loc 1 310 5 discriminator 2 view .LVU393
 1224 0018 13F0010F 		tst	r3, #1
 1225 001c 15D1     		bne	.L99
 299:Drivers/STM32L4xx_HAL_Driver/Src/stm32l4xx_hal_flash_ex.c **** 
 1226              		.loc 1 299 21 view .LVU394
 1227 001e 0025     		movs	r5, #0
 1228              	.LVL121:
 1229              	.L88:
 321:Drivers/STM32L4xx_HAL_Driver/Src/stm32l4xx_hal_flash_ex.c ****   {
 1230              		.loc 1 321 3 is_stmt 1 view .LVU395
 321:Drivers/STM32L4xx_HAL_Driver/Src/stm32l4xx_hal_flash_ex.c ****   {
 1231              		.loc 1 321 14 is_stmt 0 view .LVU396
 1232 0020 2368     		ldr	r3, [r4]
 321:Drivers/STM32L4xx_HAL_Driver/Src/stm32l4xx_hal_flash_ex.c ****   {
 1233              		.loc 1 321 5 view .LVU397
 1234 0022 13F0020F 		tst	r3, #2
 1235 0026 1AD1     		bne	.L100
 1236              	.LVL122:
 1237              	.L89:
 331:Drivers/STM32L4xx_HAL_Driver/Src/stm32l4xx_hal_flash_ex.c ****   {
 1238              		.loc 1 331 3 is_stmt 1 view .LVU398
 331:Drivers/STM32L4xx_HAL_Driver/Src/stm32l4xx_hal_flash_ex.c ****   {
 1239              		.loc 1 331 14 is_stmt 0 view .LVU399
 1240 0028 2368     		ldr	r3, [r4]
 331:Drivers/STM32L4xx_HAL_Driver/Src/stm32l4xx_hal_flash_ex.c ****   {
 1241              		.loc 1 331 5 view .LVU400
ARM GAS  /tmp/cc5sw4Du.s 			page 51


 1242 002a 13F0040F 		tst	r3, #4
 1243 002e 1DD1     		bne	.L101
 1244              	.LVL123:
 1245              	.L90:
 341:Drivers/STM32L4xx_HAL_Driver/Src/stm32l4xx_hal_flash_ex.c ****   {
 1246              		.loc 1 341 3 is_stmt 1 view .LVU401
 341:Drivers/STM32L4xx_HAL_Driver/Src/stm32l4xx_hal_flash_ex.c ****   {
 1247              		.loc 1 341 14 is_stmt 0 view .LVU402
 1248 0030 2368     		ldr	r3, [r4]
 341:Drivers/STM32L4xx_HAL_Driver/Src/stm32l4xx_hal_flash_ex.c ****   {
 1249              		.loc 1 341 5 view .LVU403
 1250 0032 13F0080F 		tst	r3, #8
 1251 0036 03D0     		beq	.L91
 343:Drivers/STM32L4xx_HAL_Driver/Src/stm32l4xx_hal_flash_ex.c ****     {
 1252              		.loc 1 343 5 is_stmt 1 view .LVU404
 343:Drivers/STM32L4xx_HAL_Driver/Src/stm32l4xx_hal_flash_ex.c ****     {
 1253              		.loc 1 343 16 is_stmt 0 view .LVU405
 1254 0038 216A     		ldr	r1, [r4, #32]
 343:Drivers/STM32L4xx_HAL_Driver/Src/stm32l4xx_hal_flash_ex.c ****     {
 1255              		.loc 1 343 43 view .LVU406
 1256 003a 626A     		ldr	r2, [r4, #36]
 343:Drivers/STM32L4xx_HAL_Driver/Src/stm32l4xx_hal_flash_ex.c ****     {
 1257              		.loc 1 343 8 view .LVU407
 1258 003c 9142     		cmp	r1, r2
 1259 003e 1DD1     		bne	.L102
 1260              	.LVL124:
 1261              	.L91:
 354:Drivers/STM32L4xx_HAL_Driver/Src/stm32l4xx_hal_flash_ex.c **** 
 1262              		.loc 1 354 3 is_stmt 1 view .LVU408
 354:Drivers/STM32L4xx_HAL_Driver/Src/stm32l4xx_hal_flash_ex.c **** 
 1263              		.loc 1 354 3 view .LVU409
 1264 0040 134B     		ldr	r3, .L103
 1265 0042 0022     		movs	r2, #0
 1266 0044 1A70     		strb	r2, [r3]
 356:Drivers/STM32L4xx_HAL_Driver/Src/stm32l4xx_hal_flash_ex.c **** }
 1267              		.loc 1 356 3 view .LVU410
 1268              	.LVL125:
 1269              	.L87:
 357:Drivers/STM32L4xx_HAL_Driver/Src/stm32l4xx_hal_flash_ex.c **** 
 1270              		.loc 1 357 1 is_stmt 0 view .LVU411
 1271 0046 2846     		mov	r0, r5
 1272 0048 38BD     		pop	{r3, r4, r5, pc}
 1273              	.LVL126:
 1274              	.L99:
 313:Drivers/STM32L4xx_HAL_Driver/Src/stm32l4xx_hal_flash_ex.c ****     {
 1275              		.loc 1 313 5 is_stmt 1 view .LVU412
 313:Drivers/STM32L4xx_HAL_Driver/Src/stm32l4xx_hal_flash_ex.c ****     {
 1276              		.loc 1 313 8 is_stmt 0 view .LVU413
 1277 004a C268     		ldr	r2, [r0, #12]
 1278 004c 8168     		ldr	r1, [r0, #8]
 1279 004e 4068     		ldr	r0, [r0, #4]
 1280              	.LVL127:
 313:Drivers/STM32L4xx_HAL_Driver/Src/stm32l4xx_hal_flash_ex.c ****     {
 1281              		.loc 1 313 8 view .LVU414
 1282 0050 FFF7FEFF 		bl	FLASH_OB_WRPConfig
 1283              	.LVL128:
 313:Drivers/STM32L4xx_HAL_Driver/Src/stm32l4xx_hal_flash_ex.c ****     {
ARM GAS  /tmp/cc5sw4Du.s 			page 52


 1284              		.loc 1 313 7 view .LVU415
 1285 0054 0546     		mov	r5, r0
 1286 0056 0028     		cmp	r0, #0
 1287 0058 E2D0     		beq	.L88
 315:Drivers/STM32L4xx_HAL_Driver/Src/stm32l4xx_hal_flash_ex.c ****     }
 1288              		.loc 1 315 14 view .LVU416
 1289 005a 0125     		movs	r5, #1
 1290 005c E0E7     		b	.L88
 1291              	.LVL129:
 1292              	.L100:
 324:Drivers/STM32L4xx_HAL_Driver/Src/stm32l4xx_hal_flash_ex.c ****     {
 1293              		.loc 1 324 5 is_stmt 1 view .LVU417
 324:Drivers/STM32L4xx_HAL_Driver/Src/stm32l4xx_hal_flash_ex.c ****     {
 1294              		.loc 1 324 8 is_stmt 0 view .LVU418
 1295 005e 2069     		ldr	r0, [r4, #16]
 1296 0060 FFF7FEFF 		bl	FLASH_OB_RDPConfig
 1297              	.LVL130:
 324:Drivers/STM32L4xx_HAL_Driver/Src/stm32l4xx_hal_flash_ex.c ****     {
 1298              		.loc 1 324 7 view .LVU419
 1299 0064 0028     		cmp	r0, #0
 1300 0066 DFD0     		beq	.L89
 326:Drivers/STM32L4xx_HAL_Driver/Src/stm32l4xx_hal_flash_ex.c ****     }
 1301              		.loc 1 326 14 view .LVU420
 1302 0068 0125     		movs	r5, #1
 1303              	.LVL131:
 326:Drivers/STM32L4xx_HAL_Driver/Src/stm32l4xx_hal_flash_ex.c ****     }
 1304              		.loc 1 326 14 view .LVU421
 1305 006a DDE7     		b	.L89
 1306              	.LVL132:
 1307              	.L101:
 334:Drivers/STM32L4xx_HAL_Driver/Src/stm32l4xx_hal_flash_ex.c ****     {
 1308              		.loc 1 334 5 is_stmt 1 view .LVU422
 334:Drivers/STM32L4xx_HAL_Driver/Src/stm32l4xx_hal_flash_ex.c ****     {
 1309              		.loc 1 334 8 is_stmt 0 view .LVU423
 1310 006c A169     		ldr	r1, [r4, #24]
 1311 006e 6069     		ldr	r0, [r4, #20]
 1312 0070 FFF7FEFF 		bl	FLASH_OB_UserConfig
 1313              	.LVL133:
 334:Drivers/STM32L4xx_HAL_Driver/Src/stm32l4xx_hal_flash_ex.c ****     {
 1314              		.loc 1 334 7 view .LVU424
 1315 0074 0028     		cmp	r0, #0
 1316 0076 DBD0     		beq	.L90
 336:Drivers/STM32L4xx_HAL_Driver/Src/stm32l4xx_hal_flash_ex.c ****     }
 1317              		.loc 1 336 14 view .LVU425
 1318 0078 0125     		movs	r5, #1
 1319              	.LVL134:
 336:Drivers/STM32L4xx_HAL_Driver/Src/stm32l4xx_hal_flash_ex.c ****     }
 1320              		.loc 1 336 14 view .LVU426
 1321 007a D9E7     		b	.L90
 1322              	.LVL135:
 1323              	.L102:
 346:Drivers/STM32L4xx_HAL_Driver/Src/stm32l4xx_hal_flash_ex.c ****       {
 1324              		.loc 1 346 7 is_stmt 1 view .LVU427
 346:Drivers/STM32L4xx_HAL_Driver/Src/stm32l4xx_hal_flash_ex.c ****       {
 1325              		.loc 1 346 10 is_stmt 0 view .LVU428
 1326 007c E069     		ldr	r0, [r4, #28]
 1327 007e FFF7FEFF 		bl	FLASH_OB_PCROPConfig
ARM GAS  /tmp/cc5sw4Du.s 			page 53


 1328              	.LVL136:
 346:Drivers/STM32L4xx_HAL_Driver/Src/stm32l4xx_hal_flash_ex.c ****       {
 1329              		.loc 1 346 9 view .LVU429
 1330 0082 0028     		cmp	r0, #0
 1331 0084 DCD0     		beq	.L91
 348:Drivers/STM32L4xx_HAL_Driver/Src/stm32l4xx_hal_flash_ex.c ****       }
 1332              		.loc 1 348 16 view .LVU430
 1333 0086 0125     		movs	r5, #1
 1334              	.LVL137:
 348:Drivers/STM32L4xx_HAL_Driver/Src/stm32l4xx_hal_flash_ex.c ****       }
 1335              		.loc 1 348 16 view .LVU431
 1336 0088 DAE7     		b	.L91
 1337              	.LVL138:
 1338              	.L92:
 302:Drivers/STM32L4xx_HAL_Driver/Src/stm32l4xx_hal_flash_ex.c **** 
 1339              		.loc 1 302 3 view .LVU432
 1340 008a 0225     		movs	r5, #2
 1341 008c DBE7     		b	.L87
 1342              	.L104:
 1343 008e 00BF     		.align	2
 1344              	.L103:
 1345 0090 00000000 		.word	pFlash
 1346              		.cfi_endproc
 1347              	.LFE319:
 1349              		.section	.text.HAL_FLASHEx_OBGetConfig,"ax",%progbits
 1350              		.align	1
 1351              		.global	HAL_FLASHEx_OBGetConfig
 1352              		.syntax unified
 1353              		.thumb
 1354              		.thumb_func
 1355              		.fpu fpv4-sp-d16
 1357              	HAL_FLASHEx_OBGetConfig:
 1358              	.LVL139:
 1359              	.LFB320:
 369:Drivers/STM32L4xx_HAL_Driver/Src/stm32l4xx_hal_flash_ex.c ****   pOBInit->OptionType = (OPTIONBYTE_RDP | OPTIONBYTE_USER);
 1360              		.loc 1 369 1 is_stmt 1 view -0
 1361              		.cfi_startproc
 1362              		@ args = 0, pretend = 0, frame = 0
 1363              		@ frame_needed = 0, uses_anonymous_args = 0
 369:Drivers/STM32L4xx_HAL_Driver/Src/stm32l4xx_hal_flash_ex.c ****   pOBInit->OptionType = (OPTIONBYTE_RDP | OPTIONBYTE_USER);
 1364              		.loc 1 369 1 is_stmt 0 view .LVU434
 1365 0000 10B5     		push	{r4, lr}
 1366              		.cfi_def_cfa_offset 8
 1367              		.cfi_offset 4, -8
 1368              		.cfi_offset 14, -4
 1369 0002 0446     		mov	r4, r0
 370:Drivers/STM32L4xx_HAL_Driver/Src/stm32l4xx_hal_flash_ex.c **** 
 1370              		.loc 1 370 3 is_stmt 1 view .LVU435
 370:Drivers/STM32L4xx_HAL_Driver/Src/stm32l4xx_hal_flash_ex.c **** 
 1371              		.loc 1 370 23 is_stmt 0 view .LVU436
 1372 0004 0623     		movs	r3, #6
 1373 0006 0360     		str	r3, [r0]
 376:Drivers/STM32L4xx_HAL_Driver/Src/stm32l4xx_hal_flash_ex.c ****      (pOBInit->WRPArea == OB_WRPAREA_BANK2_AREAA) || (pOBInit->WRPArea == OB_WRPAREA_BANK2_AREAB))
 1374              		.loc 1 376 3 is_stmt 1 view .LVU437
 376:Drivers/STM32L4xx_HAL_Driver/Src/stm32l4xx_hal_flash_ex.c ****      (pOBInit->WRPArea == OB_WRPAREA_BANK2_AREAA) || (pOBInit->WRPArea == OB_WRPAREA_BANK2_AREAB))
 1375              		.loc 1 376 14 is_stmt 0 view .LVU438
 1376 0008 4068     		ldr	r0, [r0, #4]
ARM GAS  /tmp/cc5sw4Du.s 			page 54


 1377              	.LVL140:
 376:Drivers/STM32L4xx_HAL_Driver/Src/stm32l4xx_hal_flash_ex.c ****      (pOBInit->WRPArea == OB_WRPAREA_BANK2_AREAA) || (pOBInit->WRPArea == OB_WRPAREA_BANK2_AREAB))
 1378              		.loc 1 376 5 view .LVU439
 1379 000a 0228     		cmp	r0, #2
 1380 000c 01D9     		bls	.L106
 377:Drivers/STM32L4xx_HAL_Driver/Src/stm32l4xx_hal_flash_ex.c **** #else
 1381              		.loc 1 377 51 view .LVU440
 1382 000e 0428     		cmp	r0, #4
 1383 0010 07D1     		bne	.L107
 1384              	.L106:
 382:Drivers/STM32L4xx_HAL_Driver/Src/stm32l4xx_hal_flash_ex.c ****     /* Get write protection on the selected area */
 1385              		.loc 1 382 5 is_stmt 1 view .LVU441
 382:Drivers/STM32L4xx_HAL_Driver/Src/stm32l4xx_hal_flash_ex.c ****     /* Get write protection on the selected area */
 1386              		.loc 1 382 25 is_stmt 0 view .LVU442
 1387 0012 2246     		mov	r2, r4
 1388 0014 0723     		movs	r3, #7
 1389 0016 42F80C3B 		str	r3, [r2], #12
 384:Drivers/STM32L4xx_HAL_Driver/Src/stm32l4xx_hal_flash_ex.c ****   }
 1390              		.loc 1 384 5 is_stmt 1 view .LVU443
 1391 001a 04F10801 		add	r1, r4, #8
 1392 001e FFF7FEFF 		bl	FLASH_OB_GetWRP
 1393              	.LVL141:
 1394              	.L107:
 388:Drivers/STM32L4xx_HAL_Driver/Src/stm32l4xx_hal_flash_ex.c **** 
 1395              		.loc 1 388 3 view .LVU444
 388:Drivers/STM32L4xx_HAL_Driver/Src/stm32l4xx_hal_flash_ex.c **** 
 1396              		.loc 1 388 23 is_stmt 0 view .LVU445
 1397 0022 FFF7FEFF 		bl	FLASH_OB_GetRDP
 1398              	.LVL142:
 388:Drivers/STM32L4xx_HAL_Driver/Src/stm32l4xx_hal_flash_ex.c **** 
 1399              		.loc 1 388 21 view .LVU446
 1400 0026 2061     		str	r0, [r4, #16]
 391:Drivers/STM32L4xx_HAL_Driver/Src/stm32l4xx_hal_flash_ex.c **** 
 1401              		.loc 1 391 3 is_stmt 1 view .LVU447
 391:Drivers/STM32L4xx_HAL_Driver/Src/stm32l4xx_hal_flash_ex.c **** 
 1402              		.loc 1 391 25 is_stmt 0 view .LVU448
 1403 0028 FFF7FEFF 		bl	FLASH_OB_GetUser
 1404              	.LVL143:
 391:Drivers/STM32L4xx_HAL_Driver/Src/stm32l4xx_hal_flash_ex.c **** 
 1405              		.loc 1 391 23 view .LVU449
 1406 002c A061     		str	r0, [r4, #24]
 397:Drivers/STM32L4xx_HAL_Driver/Src/stm32l4xx_hal_flash_ex.c **** #else
 1407              		.loc 1 397 3 is_stmt 1 view .LVU450
 397:Drivers/STM32L4xx_HAL_Driver/Src/stm32l4xx_hal_flash_ex.c **** #else
 1408              		.loc 1 397 14 is_stmt 0 view .LVU451
 1409 002e E369     		ldr	r3, [r4, #28]
 397:Drivers/STM32L4xx_HAL_Driver/Src/stm32l4xx_hal_flash_ex.c **** #else
 1410              		.loc 1 397 45 view .LVU452
 1411 0030 013B     		subs	r3, r3, #1
 397:Drivers/STM32L4xx_HAL_Driver/Src/stm32l4xx_hal_flash_ex.c **** #else
 1412              		.loc 1 397 5 view .LVU453
 1413 0032 012B     		cmp	r3, #1
 1414 0034 00D9     		bls	.L110
 1415              	.L105:
 406:Drivers/STM32L4xx_HAL_Driver/Src/stm32l4xx_hal_flash_ex.c **** 
 1416              		.loc 1 406 1 view .LVU454
 1417 0036 10BD     		pop	{r4, pc}
ARM GAS  /tmp/cc5sw4Du.s 			page 55


 1418              	.LVL144:
 1419              	.L110:
 402:Drivers/STM32L4xx_HAL_Driver/Src/stm32l4xx_hal_flash_ex.c ****     /* Get the Proprietary code readout protection */
 1420              		.loc 1 402 5 is_stmt 1 view .LVU455
 402:Drivers/STM32L4xx_HAL_Driver/Src/stm32l4xx_hal_flash_ex.c ****     /* Get the Proprietary code readout protection */
 1421              		.loc 1 402 25 is_stmt 0 view .LVU456
 1422 0038 2368     		ldr	r3, [r4]
 1423 003a 43F00803 		orr	r3, r3, #8
 1424 003e 2246     		mov	r2, r4
 1425 0040 42F8243B 		str	r3, [r2], #36
 404:Drivers/STM32L4xx_HAL_Driver/Src/stm32l4xx_hal_flash_ex.c ****   }
 1426              		.loc 1 404 5 is_stmt 1 view .LVU457
 1427 0044 04F12001 		add	r1, r4, #32
 1428 0048 04F11C00 		add	r0, r4, #28
 1429 004c FFF7FEFF 		bl	FLASH_OB_GetPCROP
 1430              	.LVL145:
 406:Drivers/STM32L4xx_HAL_Driver/Src/stm32l4xx_hal_flash_ex.c **** 
 1431              		.loc 1 406 1 is_stmt 0 view .LVU458
 1432 0050 F1E7     		b	.L105
 1433              		.cfi_endproc
 1434              	.LFE320:
 1436              		.section	.text.FLASH_PageErase,"ax",%progbits
 1437              		.align	1
 1438              		.global	FLASH_PageErase
 1439              		.syntax unified
 1440              		.thumb
 1441              		.thumb_func
 1442              		.fpu fpv4-sp-d16
 1444              	FLASH_PageErase:
 1445              	.LVL146:
 1446              	.LFB322:
 552:Drivers/STM32L4xx_HAL_Driver/Src/stm32l4xx_hal_flash_ex.c ****   /* Check the parameters */
 1447              		.loc 1 552 1 is_stmt 1 view -0
 1448              		.cfi_startproc
 1449              		@ args = 0, pretend = 0, frame = 0
 1450              		@ frame_needed = 0, uses_anonymous_args = 0
 1451              		@ link register save eliminated.
 554:Drivers/STM32L4xx_HAL_Driver/Src/stm32l4xx_hal_flash_ex.c **** 
 1452              		.loc 1 554 3 view .LVU460
 568:Drivers/STM32L4xx_HAL_Driver/Src/stm32l4xx_hal_flash_ex.c **** 
 1453              		.loc 1 568 5 view .LVU461
 570:Drivers/STM32L4xx_HAL_Driver/Src/stm32l4xx_hal_flash_ex.c ****     {
 1454              		.loc 1 570 5 view .LVU462
 570:Drivers/STM32L4xx_HAL_Driver/Src/stm32l4xx_hal_flash_ex.c ****     {
 1455              		.loc 1 570 7 is_stmt 0 view .LVU463
 1456 0000 11F0010F 		tst	r1, #1
 1457 0004 16D0     		beq	.L112
 572:Drivers/STM32L4xx_HAL_Driver/Src/stm32l4xx_hal_flash_ex.c ****     }
 1458              		.loc 1 572 7 is_stmt 1 view .LVU464
 1459 0006 0E4A     		ldr	r2, .L114
 1460 0008 5369     		ldr	r3, [r2, #20]
 1461 000a 23F40063 		bic	r3, r3, #2048
 1462 000e 5361     		str	r3, [r2, #20]
 1463              	.L113:
 585:Drivers/STM32L4xx_HAL_Driver/Src/stm32l4xx_hal_flash_ex.c ****   SET_BIT(FLASH->CR, FLASH_CR_PER);
 1464              		.loc 1 585 3 view .LVU465
 1465 0010 0B4B     		ldr	r3, .L114
ARM GAS  /tmp/cc5sw4Du.s 			page 56


 1466 0012 5A69     		ldr	r2, [r3, #20]
 1467 0014 22F4FF62 		bic	r2, r2, #2040
 1468 0018 C000     		lsls	r0, r0, #3
 1469              	.LVL147:
 585:Drivers/STM32L4xx_HAL_Driver/Src/stm32l4xx_hal_flash_ex.c ****   SET_BIT(FLASH->CR, FLASH_CR_PER);
 1470              		.loc 1 585 3 is_stmt 0 view .LVU466
 1471 001a 00F4FF60 		and	r0, r0, #2040
 1472 001e 0243     		orrs	r2, r2, r0
 1473 0020 5A61     		str	r2, [r3, #20]
 586:Drivers/STM32L4xx_HAL_Driver/Src/stm32l4xx_hal_flash_ex.c ****   SET_BIT(FLASH->CR, FLASH_CR_STRT);
 1474              		.loc 1 586 3 is_stmt 1 view .LVU467
 1475 0022 5A69     		ldr	r2, [r3, #20]
 1476 0024 42F00202 		orr	r2, r2, #2
 1477 0028 5A61     		str	r2, [r3, #20]
 587:Drivers/STM32L4xx_HAL_Driver/Src/stm32l4xx_hal_flash_ex.c **** }
 1478              		.loc 1 587 3 view .LVU468
 1479 002a 5A69     		ldr	r2, [r3, #20]
 1480 002c 42F48032 		orr	r2, r2, #65536
 1481 0030 5A61     		str	r2, [r3, #20]
 588:Drivers/STM32L4xx_HAL_Driver/Src/stm32l4xx_hal_flash_ex.c **** 
 1482              		.loc 1 588 1 is_stmt 0 view .LVU469
 1483 0032 7047     		bx	lr
 1484              	.LVL148:
 1485              	.L112:
 576:Drivers/STM32L4xx_HAL_Driver/Src/stm32l4xx_hal_flash_ex.c ****     }
 1486              		.loc 1 576 7 is_stmt 1 view .LVU470
 1487 0034 024A     		ldr	r2, .L114
 1488 0036 5369     		ldr	r3, [r2, #20]
 1489 0038 43F40063 		orr	r3, r3, #2048
 1490 003c 5361     		str	r3, [r2, #20]
 1491 003e E7E7     		b	.L113
 1492              	.L115:
 1493              		.align	2
 1494              	.L114:
 1495 0040 00200240 		.word	1073881088
 1496              		.cfi_endproc
 1497              	.LFE322:
 1499              		.section	.text.HAL_FLASHEx_Erase_IT,"ax",%progbits
 1500              		.align	1
 1501              		.global	HAL_FLASHEx_Erase_IT
 1502              		.syntax unified
 1503              		.thumb
 1504              		.thumb_func
 1505              		.fpu fpv4-sp-d16
 1507              	HAL_FLASHEx_Erase_IT:
 1508              	.LVL149:
 1509              	.LFB318:
 229:Drivers/STM32L4xx_HAL_Driver/Src/stm32l4xx_hal_flash_ex.c ****   HAL_StatusTypeDef status = HAL_OK;
 1510              		.loc 1 229 1 view -0
 1511              		.cfi_startproc
 1512              		@ args = 0, pretend = 0, frame = 0
 1513              		@ frame_needed = 0, uses_anonymous_args = 0
 229:Drivers/STM32L4xx_HAL_Driver/Src/stm32l4xx_hal_flash_ex.c ****   HAL_StatusTypeDef status = HAL_OK;
 1514              		.loc 1 229 1 is_stmt 0 view .LVU472
 1515 0000 08B5     		push	{r3, lr}
 1516              		.cfi_def_cfa_offset 8
 1517              		.cfi_offset 3, -8
ARM GAS  /tmp/cc5sw4Du.s 			page 57


 1518              		.cfi_offset 14, -4
 230:Drivers/STM32L4xx_HAL_Driver/Src/stm32l4xx_hal_flash_ex.c **** 
 1519              		.loc 1 230 3 is_stmt 1 view .LVU473
 1520              	.LVL150:
 233:Drivers/STM32L4xx_HAL_Driver/Src/stm32l4xx_hal_flash_ex.c **** 
 1521              		.loc 1 233 3 view .LVU474
 233:Drivers/STM32L4xx_HAL_Driver/Src/stm32l4xx_hal_flash_ex.c **** 
 1522              		.loc 1 233 3 view .LVU475
 1523 0002 294B     		ldr	r3, .L126
 1524 0004 1B78     		ldrb	r3, [r3]	@ zero_extendqisi2
 1525 0006 012B     		cmp	r3, #1
 1526 0008 4CD0     		beq	.L123
 233:Drivers/STM32L4xx_HAL_Driver/Src/stm32l4xx_hal_flash_ex.c **** 
 1527              		.loc 1 233 3 discriminator 2 view .LVU476
 1528 000a 274B     		ldr	r3, .L126
 1529 000c 0122     		movs	r2, #1
 1530 000e 1A70     		strb	r2, [r3]
 236:Drivers/STM32L4xx_HAL_Driver/Src/stm32l4xx_hal_flash_ex.c **** 
 1531              		.loc 1 236 3 discriminator 2 view .LVU477
 238:Drivers/STM32L4xx_HAL_Driver/Src/stm32l4xx_hal_flash_ex.c **** 
 1532              		.loc 1 238 3 discriminator 2 view .LVU478
 238:Drivers/STM32L4xx_HAL_Driver/Src/stm32l4xx_hal_flash_ex.c **** 
 1533              		.loc 1 238 20 is_stmt 0 discriminator 2 view .LVU479
 1534 0010 0022     		movs	r2, #0
 1535 0012 5A60     		str	r2, [r3, #4]
 241:Drivers/STM32L4xx_HAL_Driver/Src/stm32l4xx_hal_flash_ex.c ****   {
 1536              		.loc 1 241 3 is_stmt 1 discriminator 2 view .LVU480
 241:Drivers/STM32L4xx_HAL_Driver/Src/stm32l4xx_hal_flash_ex.c ****   {
 1537              		.loc 1 241 6 is_stmt 0 discriminator 2 view .LVU481
 1538 0014 254B     		ldr	r3, .L126+4
 1539 0016 1B68     		ldr	r3, [r3]
 241:Drivers/STM32L4xx_HAL_Driver/Src/stm32l4xx_hal_flash_ex.c ****   {
 1540              		.loc 1 241 5 discriminator 2 view .LVU482
 1541 0018 13F4007F 		tst	r3, #512
 1542 001c 28D0     		beq	.L118
 243:Drivers/STM32L4xx_HAL_Driver/Src/stm32l4xx_hal_flash_ex.c ****     {
 1543              		.loc 1 243 5 is_stmt 1 view .LVU483
 243:Drivers/STM32L4xx_HAL_Driver/Src/stm32l4xx_hal_flash_ex.c ****     {
 1544              		.loc 1 243 8 is_stmt 0 view .LVU484
 1545 001e 234B     		ldr	r3, .L126+4
 1546 0020 1B68     		ldr	r3, [r3]
 243:Drivers/STM32L4xx_HAL_Driver/Src/stm32l4xx_hal_flash_ex.c ****     {
 1547              		.loc 1 243 7 view .LVU485
 1548 0022 13F4806F 		tst	r3, #1024
 1549 0026 1FD0     		beq	.L119
 246:Drivers/STM32L4xx_HAL_Driver/Src/stm32l4xx_hal_flash_ex.c ****       pFlash.CacheToReactivate = FLASH_CACHE_ICACHE_DCACHE_ENABLED;
 1550              		.loc 1 246 7 is_stmt 1 view .LVU486
 1551 0028 204A     		ldr	r2, .L126+4
 1552 002a 1368     		ldr	r3, [r2]
 1553 002c 23F48063 		bic	r3, r3, #1024
 1554 0030 1360     		str	r3, [r2]
 247:Drivers/STM32L4xx_HAL_Driver/Src/stm32l4xx_hal_flash_ex.c ****     }
 1555              		.loc 1 247 7 view .LVU487
 247:Drivers/STM32L4xx_HAL_Driver/Src/stm32l4xx_hal_flash_ex.c ****     }
 1556              		.loc 1 247 32 is_stmt 0 view .LVU488
 1557 0032 1D4B     		ldr	r3, .L126
 1558 0034 0322     		movs	r2, #3
ARM GAS  /tmp/cc5sw4Du.s 			page 58


 1559 0036 1A77     		strb	r2, [r3, #28]
 1560              	.L120:
 1561 0038 0346     		mov	r3, r0
 266:Drivers/STM32L4xx_HAL_Driver/Src/stm32l4xx_hal_flash_ex.c **** 
 1562              		.loc 1 266 3 is_stmt 1 discriminator 4 view .LVU489
 266:Drivers/STM32L4xx_HAL_Driver/Src/stm32l4xx_hal_flash_ex.c **** 
 1563              		.loc 1 266 3 discriminator 4 view .LVU490
 266:Drivers/STM32L4xx_HAL_Driver/Src/stm32l4xx_hal_flash_ex.c **** 
 1564              		.loc 1 266 3 discriminator 4 view .LVU491
 266:Drivers/STM32L4xx_HAL_Driver/Src/stm32l4xx_hal_flash_ex.c **** 
 1565              		.loc 1 266 3 discriminator 4 view .LVU492
 1566 003a 1C49     		ldr	r1, .L126+4
 1567 003c 4A69     		ldr	r2, [r1, #20]
 1568 003e 42F04072 		orr	r2, r2, #50331648
 1569 0042 4A61     		str	r2, [r1, #20]
 268:Drivers/STM32L4xx_HAL_Driver/Src/stm32l4xx_hal_flash_ex.c **** 
 1570              		.loc 1 268 3 discriminator 4 view .LVU493
 268:Drivers/STM32L4xx_HAL_Driver/Src/stm32l4xx_hal_flash_ex.c **** 
 1571              		.loc 1 268 27 is_stmt 0 discriminator 4 view .LVU494
 1572 0044 4168     		ldr	r1, [r0, #4]
 268:Drivers/STM32L4xx_HAL_Driver/Src/stm32l4xx_hal_flash_ex.c **** 
 1573              		.loc 1 268 15 discriminator 4 view .LVU495
 1574 0046 184A     		ldr	r2, .L126
 1575 0048 1161     		str	r1, [r2, #16]
 270:Drivers/STM32L4xx_HAL_Driver/Src/stm32l4xx_hal_flash_ex.c ****   {
 1576              		.loc 1 270 3 is_stmt 1 discriminator 4 view .LVU496
 270:Drivers/STM32L4xx_HAL_Driver/Src/stm32l4xx_hal_flash_ex.c ****   {
 1577              		.loc 1 270 17 is_stmt 0 discriminator 4 view .LVU497
 1578 004a 0268     		ldr	r2, [r0]
 270:Drivers/STM32L4xx_HAL_Driver/Src/stm32l4xx_hal_flash_ex.c ****   {
 1579              		.loc 1 270 6 discriminator 4 view .LVU498
 1580 004c 012A     		cmp	r2, #1
 1581 004e 21D0     		beq	.L125
 279:Drivers/STM32L4xx_HAL_Driver/Src/stm32l4xx_hal_flash_ex.c ****     pFlash.NbPagesToErase = pEraseInit->NbPages;
 1582              		.loc 1 279 5 is_stmt 1 view .LVU499
 279:Drivers/STM32L4xx_HAL_Driver/Src/stm32l4xx_hal_flash_ex.c ****     pFlash.NbPagesToErase = pEraseInit->NbPages;
 1583              		.loc 1 279 29 is_stmt 0 view .LVU500
 1584 0050 154A     		ldr	r2, .L126
 1585 0052 0121     		movs	r1, #1
 1586 0054 1172     		strb	r1, [r2, #8]
 280:Drivers/STM32L4xx_HAL_Driver/Src/stm32l4xx_hal_flash_ex.c ****     pFlash.Page = pEraseInit->Page;
 1587              		.loc 1 280 5 is_stmt 1 view .LVU501
 280:Drivers/STM32L4xx_HAL_Driver/Src/stm32l4xx_hal_flash_ex.c ****     pFlash.Page = pEraseInit->Page;
 1588              		.loc 1 280 39 is_stmt 0 view .LVU502
 1589 0056 C168     		ldr	r1, [r0, #12]
 280:Drivers/STM32L4xx_HAL_Driver/Src/stm32l4xx_hal_flash_ex.c ****     pFlash.Page = pEraseInit->Page;
 1590              		.loc 1 280 27 view .LVU503
 1591 0058 9161     		str	r1, [r2, #24]
 281:Drivers/STM32L4xx_HAL_Driver/Src/stm32l4xx_hal_flash_ex.c **** 
 1592              		.loc 1 281 5 is_stmt 1 view .LVU504
 281:Drivers/STM32L4xx_HAL_Driver/Src/stm32l4xx_hal_flash_ex.c **** 
 1593              		.loc 1 281 29 is_stmt 0 view .LVU505
 1594 005a 8068     		ldr	r0, [r0, #8]
 1595              	.LVL151:
 281:Drivers/STM32L4xx_HAL_Driver/Src/stm32l4xx_hal_flash_ex.c **** 
 1596              		.loc 1 281 17 view .LVU506
 1597 005c 5061     		str	r0, [r2, #20]
ARM GAS  /tmp/cc5sw4Du.s 			page 59


 284:Drivers/STM32L4xx_HAL_Driver/Src/stm32l4xx_hal_flash_ex.c ****   }
 1598              		.loc 1 284 5 is_stmt 1 view .LVU507
 1599 005e 5968     		ldr	r1, [r3, #4]
 1600 0060 FFF7FEFF 		bl	FLASH_PageErase
 1601              	.LVL152:
 287:Drivers/STM32L4xx_HAL_Driver/Src/stm32l4xx_hal_flash_ex.c **** }
 1602              		.loc 1 287 10 is_stmt 0 view .LVU508
 1603 0064 0020     		movs	r0, #0
 1604              	.L117:
 288:Drivers/STM32L4xx_HAL_Driver/Src/stm32l4xx_hal_flash_ex.c **** 
 1605              		.loc 1 288 1 view .LVU509
 1606 0066 08BD     		pop	{r3, pc}
 1607              	.LVL153:
 1608              	.L119:
 251:Drivers/STM32L4xx_HAL_Driver/Src/stm32l4xx_hal_flash_ex.c ****     }
 1609              		.loc 1 251 7 is_stmt 1 view .LVU510
 251:Drivers/STM32L4xx_HAL_Driver/Src/stm32l4xx_hal_flash_ex.c ****     }
 1610              		.loc 1 251 32 is_stmt 0 view .LVU511
 1611 0068 0F4B     		ldr	r3, .L126
 1612 006a 0122     		movs	r2, #1
 1613 006c 1A77     		strb	r2, [r3, #28]
 1614 006e E3E7     		b	.L120
 1615              	.L118:
 254:Drivers/STM32L4xx_HAL_Driver/Src/stm32l4xx_hal_flash_ex.c ****   {
 1616              		.loc 1 254 8 is_stmt 1 view .LVU512
 254:Drivers/STM32L4xx_HAL_Driver/Src/stm32l4xx_hal_flash_ex.c ****   {
 1617              		.loc 1 254 11 is_stmt 0 view .LVU513
 1618 0070 0E4B     		ldr	r3, .L126+4
 1619 0072 1B68     		ldr	r3, [r3]
 254:Drivers/STM32L4xx_HAL_Driver/Src/stm32l4xx_hal_flash_ex.c ****   {
 1620              		.loc 1 254 10 view .LVU514
 1621 0074 13F4806F 		tst	r3, #1024
 1622 0078 08D0     		beq	.L121
 257:Drivers/STM32L4xx_HAL_Driver/Src/stm32l4xx_hal_flash_ex.c ****     pFlash.CacheToReactivate = FLASH_CACHE_DCACHE_ENABLED;
 1623              		.loc 1 257 5 is_stmt 1 view .LVU515
 1624 007a 0C4A     		ldr	r2, .L126+4
 1625 007c 1368     		ldr	r3, [r2]
 1626 007e 23F48063 		bic	r3, r3, #1024
 1627 0082 1360     		str	r3, [r2]
 258:Drivers/STM32L4xx_HAL_Driver/Src/stm32l4xx_hal_flash_ex.c ****   }
 1628              		.loc 1 258 5 view .LVU516
 258:Drivers/STM32L4xx_HAL_Driver/Src/stm32l4xx_hal_flash_ex.c ****   }
 1629              		.loc 1 258 30 is_stmt 0 view .LVU517
 1630 0084 084B     		ldr	r3, .L126
 1631 0086 0222     		movs	r2, #2
 1632 0088 1A77     		strb	r2, [r3, #28]
 1633 008a D5E7     		b	.L120
 1634              	.L121:
 262:Drivers/STM32L4xx_HAL_Driver/Src/stm32l4xx_hal_flash_ex.c ****   }
 1635              		.loc 1 262 5 is_stmt 1 view .LVU518
 262:Drivers/STM32L4xx_HAL_Driver/Src/stm32l4xx_hal_flash_ex.c ****   }
 1636              		.loc 1 262 30 is_stmt 0 view .LVU519
 1637 008c 064B     		ldr	r3, .L126
 1638 008e 0022     		movs	r2, #0
 1639 0090 1A77     		strb	r2, [r3, #28]
 1640 0092 D1E7     		b	.L120
 1641              	.L125:
ARM GAS  /tmp/cc5sw4Du.s 			page 60


 273:Drivers/STM32L4xx_HAL_Driver/Src/stm32l4xx_hal_flash_ex.c ****     FLASH_MassErase(pEraseInit->Banks);
 1642              		.loc 1 273 5 is_stmt 1 view .LVU520
 273:Drivers/STM32L4xx_HAL_Driver/Src/stm32l4xx_hal_flash_ex.c ****     FLASH_MassErase(pEraseInit->Banks);
 1643              		.loc 1 273 29 is_stmt 0 view .LVU521
 1644 0094 044A     		ldr	r2, .L126
 1645 0096 0221     		movs	r1, #2
 1646 0098 1172     		strb	r1, [r2, #8]
 274:Drivers/STM32L4xx_HAL_Driver/Src/stm32l4xx_hal_flash_ex.c ****   }
 1647              		.loc 1 274 5 is_stmt 1 view .LVU522
 1648 009a 4068     		ldr	r0, [r0, #4]
 1649              	.LVL154:
 274:Drivers/STM32L4xx_HAL_Driver/Src/stm32l4xx_hal_flash_ex.c ****   }
 1650              		.loc 1 274 5 is_stmt 0 view .LVU523
 1651 009c FFF7FEFF 		bl	FLASH_MassErase
 1652              	.LVL155:
 287:Drivers/STM32L4xx_HAL_Driver/Src/stm32l4xx_hal_flash_ex.c **** }
 1653              		.loc 1 287 10 view .LVU524
 1654 00a0 0020     		movs	r0, #0
 1655 00a2 E0E7     		b	.L117
 1656              	.LVL156:
 1657              	.L123:
 233:Drivers/STM32L4xx_HAL_Driver/Src/stm32l4xx_hal_flash_ex.c **** 
 1658              		.loc 1 233 3 view .LVU525
 1659 00a4 0220     		movs	r0, #2
 1660              	.LVL157:
 233:Drivers/STM32L4xx_HAL_Driver/Src/stm32l4xx_hal_flash_ex.c **** 
 1661              		.loc 1 233 3 view .LVU526
 1662 00a6 DEE7     		b	.L117
 1663              	.L127:
 1664              		.align	2
 1665              	.L126:
 1666 00a8 00000000 		.word	pFlash
 1667 00ac 00200240 		.word	1073881088
 1668              		.cfi_endproc
 1669              	.LFE318:
 1671              		.section	.text.FLASH_FlushCaches,"ax",%progbits
 1672              		.align	1
 1673              		.global	FLASH_FlushCaches
 1674              		.syntax unified
 1675              		.thumb
 1676              		.thumb_func
 1677              		.fpu fpv4-sp-d16
 1679              	FLASH_FlushCaches:
 1680              	.LFB323:
 595:Drivers/STM32L4xx_HAL_Driver/Src/stm32l4xx_hal_flash_ex.c ****   FLASH_CacheTypeDef cache = pFlash.CacheToReactivate;
 1681              		.loc 1 595 1 is_stmt 1 view -0
 1682              		.cfi_startproc
 1683              		@ args = 0, pretend = 0, frame = 0
 1684              		@ frame_needed = 0, uses_anonymous_args = 0
 1685              		@ link register save eliminated.
 596:Drivers/STM32L4xx_HAL_Driver/Src/stm32l4xx_hal_flash_ex.c **** 
 1686              		.loc 1 596 3 view .LVU528
 596:Drivers/STM32L4xx_HAL_Driver/Src/stm32l4xx_hal_flash_ex.c **** 
 1687              		.loc 1 596 22 is_stmt 0 view .LVU529
 1688 0000 164B     		ldr	r3, .L133
 1689 0002 1B7F     		ldrb	r3, [r3, #28]	@ zero_extendqisi2
 1690 0004 DBB2     		uxtb	r3, r3
ARM GAS  /tmp/cc5sw4Du.s 			page 61


 1691              	.LVL158:
 599:Drivers/STM32L4xx_HAL_Driver/Src/stm32l4xx_hal_flash_ex.c ****      (cache == FLASH_CACHE_ICACHE_DCACHE_ENABLED))
 1692              		.loc 1 599 3 is_stmt 1 view .LVU530
 599:Drivers/STM32L4xx_HAL_Driver/Src/stm32l4xx_hal_flash_ex.c ****      (cache == FLASH_CACHE_ICACHE_DCACHE_ENABLED))
 1693              		.loc 1 599 5 is_stmt 0 view .LVU531
 1694 0006 012B     		cmp	r3, #1
 1695 0008 01D0     		beq	.L129
 599:Drivers/STM32L4xx_HAL_Driver/Src/stm32l4xx_hal_flash_ex.c ****      (cache == FLASH_CACHE_ICACHE_DCACHE_ENABLED))
 1696              		.loc 1 599 44 discriminator 1 view .LVU532
 1697 000a 032B     		cmp	r3, #3
 1698 000c 10D1     		bne	.L130
 1699              	.L129:
 603:Drivers/STM32L4xx_HAL_Driver/Src/stm32l4xx_hal_flash_ex.c ****     /* Reset instruction cache */
 1700              		.loc 1 603 5 is_stmt 1 view .LVU533
 1701 000e 144A     		ldr	r2, .L133+4
 1702 0010 1168     		ldr	r1, [r2]
 1703 0012 21F40071 		bic	r1, r1, #512
 1704 0016 1160     		str	r1, [r2]
 605:Drivers/STM32L4xx_HAL_Driver/Src/stm32l4xx_hal_flash_ex.c ****     /* Enable instruction cache */
 1705              		.loc 1 605 5 view .LVU534
 605:Drivers/STM32L4xx_HAL_Driver/Src/stm32l4xx_hal_flash_ex.c ****     /* Enable instruction cache */
 1706              		.loc 1 605 5 view .LVU535
 1707 0018 1168     		ldr	r1, [r2]
 1708 001a 41F40061 		orr	r1, r1, #2048
 1709 001e 1160     		str	r1, [r2]
 605:Drivers/STM32L4xx_HAL_Driver/Src/stm32l4xx_hal_flash_ex.c ****     /* Enable instruction cache */
 1710              		.loc 1 605 5 view .LVU536
 1711 0020 1168     		ldr	r1, [r2]
 1712 0022 21F40061 		bic	r1, r1, #2048
 1713 0026 1160     		str	r1, [r2]
 607:Drivers/STM32L4xx_HAL_Driver/Src/stm32l4xx_hal_flash_ex.c ****   }
 1714              		.loc 1 607 5 view .LVU537
 1715 0028 1168     		ldr	r1, [r2]
 1716 002a 41F40071 		orr	r1, r1, #512
 1717 002e 1160     		str	r1, [r2]
 1718              	.L130:
 611:Drivers/STM32L4xx_HAL_Driver/Src/stm32l4xx_hal_flash_ex.c ****      (cache == FLASH_CACHE_ICACHE_DCACHE_ENABLED))
 1719              		.loc 1 611 3 view .LVU538
 611:Drivers/STM32L4xx_HAL_Driver/Src/stm32l4xx_hal_flash_ex.c ****      (cache == FLASH_CACHE_ICACHE_DCACHE_ENABLED))
 1720              		.loc 1 611 44 is_stmt 0 view .LVU539
 1721 0030 023B     		subs	r3, r3, #2
 1722              	.LVL159:
 611:Drivers/STM32L4xx_HAL_Driver/Src/stm32l4xx_hal_flash_ex.c ****      (cache == FLASH_CACHE_ICACHE_DCACHE_ENABLED))
 1723              		.loc 1 611 44 view .LVU540
 1724 0032 DBB2     		uxtb	r3, r3
 1725              	.LVL160:
 611:Drivers/STM32L4xx_HAL_Driver/Src/stm32l4xx_hal_flash_ex.c ****      (cache == FLASH_CACHE_ICACHE_DCACHE_ENABLED))
 1726              		.loc 1 611 5 view .LVU541
 1727 0034 012B     		cmp	r3, #1
 1728 0036 03D9     		bls	.L132
 1729              	.L131:
 621:Drivers/STM32L4xx_HAL_Driver/Src/stm32l4xx_hal_flash_ex.c **** }
 1730              		.loc 1 621 3 is_stmt 1 view .LVU542
 621:Drivers/STM32L4xx_HAL_Driver/Src/stm32l4xx_hal_flash_ex.c **** }
 1731              		.loc 1 621 28 is_stmt 0 view .LVU543
 1732 0038 084B     		ldr	r3, .L133
 1733 003a 0022     		movs	r2, #0
ARM GAS  /tmp/cc5sw4Du.s 			page 62


 1734 003c 1A77     		strb	r2, [r3, #28]
 622:Drivers/STM32L4xx_HAL_Driver/Src/stm32l4xx_hal_flash_ex.c **** 
 1735              		.loc 1 622 1 view .LVU544
 1736 003e 7047     		bx	lr
 1737              	.L132:
 615:Drivers/STM32L4xx_HAL_Driver/Src/stm32l4xx_hal_flash_ex.c ****     /* Enable data cache */
 1738              		.loc 1 615 5 is_stmt 1 view .LVU545
 615:Drivers/STM32L4xx_HAL_Driver/Src/stm32l4xx_hal_flash_ex.c ****     /* Enable data cache */
 1739              		.loc 1 615 5 view .LVU546
 1740 0040 074B     		ldr	r3, .L133+4
 1741 0042 1A68     		ldr	r2, [r3]
 1742 0044 42F48052 		orr	r2, r2, #4096
 1743 0048 1A60     		str	r2, [r3]
 615:Drivers/STM32L4xx_HAL_Driver/Src/stm32l4xx_hal_flash_ex.c ****     /* Enable data cache */
 1744              		.loc 1 615 5 view .LVU547
 1745 004a 1A68     		ldr	r2, [r3]
 1746 004c 22F48052 		bic	r2, r2, #4096
 1747 0050 1A60     		str	r2, [r3]
 617:Drivers/STM32L4xx_HAL_Driver/Src/stm32l4xx_hal_flash_ex.c ****   }
 1748              		.loc 1 617 5 view .LVU548
 1749 0052 1A68     		ldr	r2, [r3]
 1750 0054 42F48062 		orr	r2, r2, #1024
 1751 0058 1A60     		str	r2, [r3]
 1752 005a EDE7     		b	.L131
 1753              	.L134:
 1754              		.align	2
 1755              	.L133:
 1756 005c 00000000 		.word	pFlash
 1757 0060 00200240 		.word	1073881088
 1758              		.cfi_endproc
 1759              	.LFE323:
 1761              		.section	.text.HAL_FLASHEx_Erase,"ax",%progbits
 1762              		.align	1
 1763              		.global	HAL_FLASHEx_Erase
 1764              		.syntax unified
 1765              		.thumb
 1766              		.thumb_func
 1767              		.fpu fpv4-sp-d16
 1769              	HAL_FLASHEx_Erase:
 1770              	.LVL161:
 1771              	.LFB317:
 126:Drivers/STM32L4xx_HAL_Driver/Src/stm32l4xx_hal_flash_ex.c ****   HAL_StatusTypeDef status;
 1772              		.loc 1 126 1 view -0
 1773              		.cfi_startproc
 1774              		@ args = 0, pretend = 0, frame = 0
 1775              		@ frame_needed = 0, uses_anonymous_args = 0
 126:Drivers/STM32L4xx_HAL_Driver/Src/stm32l4xx_hal_flash_ex.c ****   HAL_StatusTypeDef status;
 1776              		.loc 1 126 1 is_stmt 0 view .LVU550
 1777 0000 F8B5     		push	{r3, r4, r5, r6, r7, lr}
 1778              		.cfi_def_cfa_offset 24
 1779              		.cfi_offset 3, -24
 1780              		.cfi_offset 4, -20
 1781              		.cfi_offset 5, -16
 1782              		.cfi_offset 6, -12
 1783              		.cfi_offset 7, -8
 1784              		.cfi_offset 14, -4
 127:Drivers/STM32L4xx_HAL_Driver/Src/stm32l4xx_hal_flash_ex.c ****   uint32_t page_index;
ARM GAS  /tmp/cc5sw4Du.s 			page 63


 1785              		.loc 1 127 3 is_stmt 1 view .LVU551
 128:Drivers/STM32L4xx_HAL_Driver/Src/stm32l4xx_hal_flash_ex.c **** 
 1786              		.loc 1 128 3 view .LVU552
 131:Drivers/STM32L4xx_HAL_Driver/Src/stm32l4xx_hal_flash_ex.c **** 
 1787              		.loc 1 131 3 view .LVU553
 131:Drivers/STM32L4xx_HAL_Driver/Src/stm32l4xx_hal_flash_ex.c **** 
 1788              		.loc 1 131 3 view .LVU554
 1789 0002 3A4B     		ldr	r3, .L151
 1790 0004 1B78     		ldrb	r3, [r3]	@ zero_extendqisi2
 1791 0006 012B     		cmp	r3, #1
 1792 0008 6DD0     		beq	.L147
 1793 000a 0E46     		mov	r6, r1
 1794 000c 0446     		mov	r4, r0
 131:Drivers/STM32L4xx_HAL_Driver/Src/stm32l4xx_hal_flash_ex.c **** 
 1795              		.loc 1 131 3 discriminator 2 view .LVU555
 1796 000e 374B     		ldr	r3, .L151
 1797 0010 0122     		movs	r2, #1
 1798 0012 1A70     		strb	r2, [r3]
 134:Drivers/STM32L4xx_HAL_Driver/Src/stm32l4xx_hal_flash_ex.c **** 
 1799              		.loc 1 134 3 discriminator 2 view .LVU556
 137:Drivers/STM32L4xx_HAL_Driver/Src/stm32l4xx_hal_flash_ex.c **** 
 1800              		.loc 1 137 3 discriminator 2 view .LVU557
 137:Drivers/STM32L4xx_HAL_Driver/Src/stm32l4xx_hal_flash_ex.c **** 
 1801              		.loc 1 137 12 is_stmt 0 discriminator 2 view .LVU558
 1802 0014 4CF25030 		movw	r0, #50000
 1803              	.LVL162:
 137:Drivers/STM32L4xx_HAL_Driver/Src/stm32l4xx_hal_flash_ex.c **** 
 1804              		.loc 1 137 12 discriminator 2 view .LVU559
 1805 0018 FFF7FEFF 		bl	FLASH_WaitForLastOperation
 1806              	.LVL163:
 139:Drivers/STM32L4xx_HAL_Driver/Src/stm32l4xx_hal_flash_ex.c ****   {
 1807              		.loc 1 139 3 is_stmt 1 discriminator 2 view .LVU560
 139:Drivers/STM32L4xx_HAL_Driver/Src/stm32l4xx_hal_flash_ex.c ****   {
 1808              		.loc 1 139 6 is_stmt 0 discriminator 2 view .LVU561
 1809 001c 0746     		mov	r7, r0
 1810 001e 0028     		cmp	r0, #0
 1811 0020 5CD1     		bne	.L137
 141:Drivers/STM32L4xx_HAL_Driver/Src/stm32l4xx_hal_flash_ex.c **** 
 1812              		.loc 1 141 5 is_stmt 1 view .LVU562
 141:Drivers/STM32L4xx_HAL_Driver/Src/stm32l4xx_hal_flash_ex.c **** 
 1813              		.loc 1 141 22 is_stmt 0 view .LVU563
 1814 0022 324B     		ldr	r3, .L151
 1815 0024 0022     		movs	r2, #0
 1816 0026 5A60     		str	r2, [r3, #4]
 144:Drivers/STM32L4xx_HAL_Driver/Src/stm32l4xx_hal_flash_ex.c ****     {
 1817              		.loc 1 144 5 is_stmt 1 view .LVU564
 144:Drivers/STM32L4xx_HAL_Driver/Src/stm32l4xx_hal_flash_ex.c ****     {
 1818              		.loc 1 144 8 is_stmt 0 view .LVU565
 1819 0028 314B     		ldr	r3, .L151+4
 1820 002a 1B68     		ldr	r3, [r3]
 144:Drivers/STM32L4xx_HAL_Driver/Src/stm32l4xx_hal_flash_ex.c ****     {
 1821              		.loc 1 144 7 view .LVU566
 1822 002c 13F4007F 		tst	r3, #512
 1823 0030 2FD0     		beq	.L138
 146:Drivers/STM32L4xx_HAL_Driver/Src/stm32l4xx_hal_flash_ex.c ****       {
 1824              		.loc 1 146 7 is_stmt 1 view .LVU567
 146:Drivers/STM32L4xx_HAL_Driver/Src/stm32l4xx_hal_flash_ex.c ****       {
ARM GAS  /tmp/cc5sw4Du.s 			page 64


 1825              		.loc 1 146 10 is_stmt 0 view .LVU568
 1826 0032 2F4B     		ldr	r3, .L151+4
 1827 0034 1B68     		ldr	r3, [r3]
 146:Drivers/STM32L4xx_HAL_Driver/Src/stm32l4xx_hal_flash_ex.c ****       {
 1828              		.loc 1 146 9 view .LVU569
 1829 0036 13F4806F 		tst	r3, #1024
 1830 003a 26D0     		beq	.L139
 149:Drivers/STM32L4xx_HAL_Driver/Src/stm32l4xx_hal_flash_ex.c ****         pFlash.CacheToReactivate = FLASH_CACHE_ICACHE_DCACHE_ENABLED;
 1831              		.loc 1 149 9 is_stmt 1 view .LVU570
 1832 003c 2C4A     		ldr	r2, .L151+4
 1833 003e 1368     		ldr	r3, [r2]
 1834 0040 23F48063 		bic	r3, r3, #1024
 1835 0044 1360     		str	r3, [r2]
 150:Drivers/STM32L4xx_HAL_Driver/Src/stm32l4xx_hal_flash_ex.c ****       }
 1836              		.loc 1 150 9 view .LVU571
 150:Drivers/STM32L4xx_HAL_Driver/Src/stm32l4xx_hal_flash_ex.c ****       }
 1837              		.loc 1 150 34 is_stmt 0 view .LVU572
 1838 0046 294B     		ldr	r3, .L151
 1839 0048 0322     		movs	r2, #3
 1840 004a 1A77     		strb	r2, [r3, #28]
 1841              	.L140:
 168:Drivers/STM32L4xx_HAL_Driver/Src/stm32l4xx_hal_flash_ex.c ****     {
 1842              		.loc 1 168 5 is_stmt 1 view .LVU573
 168:Drivers/STM32L4xx_HAL_Driver/Src/stm32l4xx_hal_flash_ex.c ****     {
 1843              		.loc 1 168 19 is_stmt 0 view .LVU574
 1844 004c 2368     		ldr	r3, [r4]
 168:Drivers/STM32L4xx_HAL_Driver/Src/stm32l4xx_hal_flash_ex.c ****     {
 1845              		.loc 1 168 8 view .LVU575
 1846 004e 012B     		cmp	r3, #1
 1847 0050 31D0     		beq	.L149
 190:Drivers/STM32L4xx_HAL_Driver/Src/stm32l4xx_hal_flash_ex.c **** 
 1848              		.loc 1 190 7 is_stmt 1 view .LVU576
 190:Drivers/STM32L4xx_HAL_Driver/Src/stm32l4xx_hal_flash_ex.c **** 
 1849              		.loc 1 190 18 is_stmt 0 view .LVU577
 1850 0052 4FF0FF33 		mov	r3, #-1
 1851 0056 3360     		str	r3, [r6]
 192:Drivers/STM32L4xx_HAL_Driver/Src/stm32l4xx_hal_flash_ex.c ****       {
 1852              		.loc 1 192 7 is_stmt 1 view .LVU578
 192:Drivers/STM32L4xx_HAL_Driver/Src/stm32l4xx_hal_flash_ex.c ****       {
 1853              		.loc 1 192 22 is_stmt 0 view .LVU579
 1854 0058 A568     		ldr	r5, [r4, #8]
 1855              	.LVL164:
 1856              	.L144:
 192:Drivers/STM32L4xx_HAL_Driver/Src/stm32l4xx_hal_flash_ex.c ****       {
 1857              		.loc 1 192 66 discriminator 1 view .LVU580
 1858 005a A368     		ldr	r3, [r4, #8]
 192:Drivers/STM32L4xx_HAL_Driver/Src/stm32l4xx_hal_flash_ex.c ****       {
 1859              		.loc 1 192 85 discriminator 1 view .LVU581
 1860 005c E268     		ldr	r2, [r4, #12]
 192:Drivers/STM32L4xx_HAL_Driver/Src/stm32l4xx_hal_flash_ex.c ****       {
 1861              		.loc 1 192 73 discriminator 1 view .LVU582
 1862 005e 1344     		add	r3, r3, r2
 192:Drivers/STM32L4xx_HAL_Driver/Src/stm32l4xx_hal_flash_ex.c ****       {
 1863              		.loc 1 192 7 discriminator 1 view .LVU583
 1864 0060 AB42     		cmp	r3, r5
 1865 0062 39D9     		bls	.L143
 194:Drivers/STM32L4xx_HAL_Driver/Src/stm32l4xx_hal_flash_ex.c **** 
ARM GAS  /tmp/cc5sw4Du.s 			page 65


 1866              		.loc 1 194 9 is_stmt 1 view .LVU584
 1867 0064 6168     		ldr	r1, [r4, #4]
 1868 0066 2846     		mov	r0, r5
 1869 0068 FFF7FEFF 		bl	FLASH_PageErase
 1870              	.LVL165:
 197:Drivers/STM32L4xx_HAL_Driver/Src/stm32l4xx_hal_flash_ex.c **** 
 1871              		.loc 1 197 9 view .LVU585
 197:Drivers/STM32L4xx_HAL_Driver/Src/stm32l4xx_hal_flash_ex.c **** 
 1872              		.loc 1 197 18 is_stmt 0 view .LVU586
 1873 006c 4CF25030 		movw	r0, #50000
 1874 0070 FFF7FEFF 		bl	FLASH_WaitForLastOperation
 1875              	.LVL166:
 200:Drivers/STM32L4xx_HAL_Driver/Src/stm32l4xx_hal_flash_ex.c **** 
 1876              		.loc 1 200 9 is_stmt 1 view .LVU587
 1877 0074 1E4A     		ldr	r2, .L151+4
 1878 0076 5369     		ldr	r3, [r2, #20]
 1879 0078 23F4FF63 		bic	r3, r3, #2040
 1880 007c 23F00203 		bic	r3, r3, #2
 1881 0080 5361     		str	r3, [r2, #20]
 202:Drivers/STM32L4xx_HAL_Driver/Src/stm32l4xx_hal_flash_ex.c ****         {
 1882              		.loc 1 202 9 view .LVU588
 202:Drivers/STM32L4xx_HAL_Driver/Src/stm32l4xx_hal_flash_ex.c ****         {
 1883              		.loc 1 202 12 is_stmt 0 view .LVU589
 1884 0082 0746     		mov	r7, r0
 1885 0084 38BB     		cbnz	r0, .L150
 192:Drivers/STM32L4xx_HAL_Driver/Src/stm32l4xx_hal_flash_ex.c ****       {
 1886              		.loc 1 192 107 discriminator 2 view .LVU590
 1887 0086 0135     		adds	r5, r5, #1
 1888              	.LVL167:
 192:Drivers/STM32L4xx_HAL_Driver/Src/stm32l4xx_hal_flash_ex.c ****       {
 1889              		.loc 1 192 107 discriminator 2 view .LVU591
 1890 0088 E7E7     		b	.L144
 1891              	.LVL168:
 1892              	.L139:
 154:Drivers/STM32L4xx_HAL_Driver/Src/stm32l4xx_hal_flash_ex.c ****       }
 1893              		.loc 1 154 9 is_stmt 1 view .LVU592
 154:Drivers/STM32L4xx_HAL_Driver/Src/stm32l4xx_hal_flash_ex.c ****       }
 1894              		.loc 1 154 34 is_stmt 0 view .LVU593
 1895 008a 184B     		ldr	r3, .L151
 1896 008c 0122     		movs	r2, #1
 1897 008e 1A77     		strb	r2, [r3, #28]
 1898 0090 DCE7     		b	.L140
 1899              	.L138:
 157:Drivers/STM32L4xx_HAL_Driver/Src/stm32l4xx_hal_flash_ex.c ****     {
 1900              		.loc 1 157 10 is_stmt 1 view .LVU594
 157:Drivers/STM32L4xx_HAL_Driver/Src/stm32l4xx_hal_flash_ex.c ****     {
 1901              		.loc 1 157 13 is_stmt 0 view .LVU595
 1902 0092 174B     		ldr	r3, .L151+4
 1903 0094 1B68     		ldr	r3, [r3]
 157:Drivers/STM32L4xx_HAL_Driver/Src/stm32l4xx_hal_flash_ex.c ****     {
 1904              		.loc 1 157 12 view .LVU596
 1905 0096 13F4806F 		tst	r3, #1024
 1906 009a 08D0     		beq	.L141
 160:Drivers/STM32L4xx_HAL_Driver/Src/stm32l4xx_hal_flash_ex.c ****       pFlash.CacheToReactivate = FLASH_CACHE_DCACHE_ENABLED;
 1907              		.loc 1 160 7 is_stmt 1 view .LVU597
 1908 009c 144A     		ldr	r2, .L151+4
 1909 009e 1368     		ldr	r3, [r2]
ARM GAS  /tmp/cc5sw4Du.s 			page 66


 1910 00a0 23F48063 		bic	r3, r3, #1024
 1911 00a4 1360     		str	r3, [r2]
 161:Drivers/STM32L4xx_HAL_Driver/Src/stm32l4xx_hal_flash_ex.c ****     }
 1912              		.loc 1 161 7 view .LVU598
 161:Drivers/STM32L4xx_HAL_Driver/Src/stm32l4xx_hal_flash_ex.c ****     }
 1913              		.loc 1 161 32 is_stmt 0 view .LVU599
 1914 00a6 114B     		ldr	r3, .L151
 1915 00a8 0222     		movs	r2, #2
 1916 00aa 1A77     		strb	r2, [r3, #28]
 1917 00ac CEE7     		b	.L140
 1918              	.L141:
 165:Drivers/STM32L4xx_HAL_Driver/Src/stm32l4xx_hal_flash_ex.c ****     }
 1919              		.loc 1 165 7 is_stmt 1 view .LVU600
 165:Drivers/STM32L4xx_HAL_Driver/Src/stm32l4xx_hal_flash_ex.c ****     }
 1920              		.loc 1 165 32 is_stmt 0 view .LVU601
 1921 00ae 0F4B     		ldr	r3, .L151
 1922 00b0 0022     		movs	r2, #0
 1923 00b2 1A77     		strb	r2, [r3, #28]
 1924 00b4 CAE7     		b	.L140
 1925              	.L149:
 171:Drivers/STM32L4xx_HAL_Driver/Src/stm32l4xx_hal_flash_ex.c **** 
 1926              		.loc 1 171 7 is_stmt 1 view .LVU602
 1927 00b6 6068     		ldr	r0, [r4, #4]
 1928              	.LVL169:
 171:Drivers/STM32L4xx_HAL_Driver/Src/stm32l4xx_hal_flash_ex.c **** 
 1929              		.loc 1 171 7 is_stmt 0 view .LVU603
 1930 00b8 FFF7FEFF 		bl	FLASH_MassErase
 1931              	.LVL170:
 174:Drivers/STM32L4xx_HAL_Driver/Src/stm32l4xx_hal_flash_ex.c **** 
 1932              		.loc 1 174 7 is_stmt 1 view .LVU604
 174:Drivers/STM32L4xx_HAL_Driver/Src/stm32l4xx_hal_flash_ex.c **** 
 1933              		.loc 1 174 16 is_stmt 0 view .LVU605
 1934 00bc 4CF25030 		movw	r0, #50000
 1935 00c0 FFF7FEFF 		bl	FLASH_WaitForLastOperation
 1936              	.LVL171:
 1937 00c4 0746     		mov	r7, r0
 1938              	.LVL172:
 181:Drivers/STM32L4xx_HAL_Driver/Src/stm32l4xx_hal_flash_ex.c **** #else
 1939              		.loc 1 181 7 is_stmt 1 view .LVU606
 1940 00c6 0A4A     		ldr	r2, .L151+4
 1941 00c8 5369     		ldr	r3, [r2, #20]
 1942 00ca 23F40043 		bic	r3, r3, #32768
 1943 00ce 23F00403 		bic	r3, r3, #4
 1944 00d2 5361     		str	r3, [r2, #20]
 1945 00d4 00E0     		b	.L143
 1946              	.LVL173:
 1947              	.L150:
 205:Drivers/STM32L4xx_HAL_Driver/Src/stm32l4xx_hal_flash_ex.c ****           break;
 1948              		.loc 1 205 11 view .LVU607
 205:Drivers/STM32L4xx_HAL_Driver/Src/stm32l4xx_hal_flash_ex.c ****           break;
 1949              		.loc 1 205 22 is_stmt 0 view .LVU608
 1950 00d6 3560     		str	r5, [r6]
 206:Drivers/STM32L4xx_HAL_Driver/Src/stm32l4xx_hal_flash_ex.c ****         }
 1951              		.loc 1 206 11 is_stmt 1 view .LVU609
 1952              	.LVL174:
 1953              	.L143:
 212:Drivers/STM32L4xx_HAL_Driver/Src/stm32l4xx_hal_flash_ex.c ****   }
ARM GAS  /tmp/cc5sw4Du.s 			page 67


 1954              		.loc 1 212 5 view .LVU610
 1955 00d8 FFF7FEFF 		bl	FLASH_FlushCaches
 1956              	.LVL175:
 1957              	.L137:
 216:Drivers/STM32L4xx_HAL_Driver/Src/stm32l4xx_hal_flash_ex.c **** 
 1958              		.loc 1 216 3 view .LVU611
 216:Drivers/STM32L4xx_HAL_Driver/Src/stm32l4xx_hal_flash_ex.c **** 
 1959              		.loc 1 216 3 view .LVU612
 1960 00dc 034B     		ldr	r3, .L151
 1961 00de 0022     		movs	r2, #0
 1962 00e0 1A70     		strb	r2, [r3]
 218:Drivers/STM32L4xx_HAL_Driver/Src/stm32l4xx_hal_flash_ex.c **** }
 1963              		.loc 1 218 3 view .LVU613
 1964              	.LVL176:
 1965              	.L136:
 219:Drivers/STM32L4xx_HAL_Driver/Src/stm32l4xx_hal_flash_ex.c **** 
 1966              		.loc 1 219 1 is_stmt 0 view .LVU614
 1967 00e2 3846     		mov	r0, r7
 1968 00e4 F8BD     		pop	{r3, r4, r5, r6, r7, pc}
 1969              	.LVL177:
 1970              	.L147:
 131:Drivers/STM32L4xx_HAL_Driver/Src/stm32l4xx_hal_flash_ex.c **** 
 1971              		.loc 1 131 3 view .LVU615
 1972 00e6 0227     		movs	r7, #2
 1973 00e8 FBE7     		b	.L136
 1974              	.L152:
 1975 00ea 00BF     		.align	2
 1976              	.L151:
 1977 00ec 00000000 		.word	pFlash
 1978 00f0 00200240 		.word	1073881088
 1979              		.cfi_endproc
 1980              	.LFE317:
 1982              		.text
 1983              	.Letext0:
 1984              		.file 2 "/usr/lib/gcc/arm-none-eabi/8.3.1/include/stdint.h"
 1985              		.file 3 "Drivers/CMSIS/Include/core_cm4.h"
 1986              		.file 4 "Drivers/CMSIS/Device/ST/STM32L4xx/Include/system_stm32l4xx.h"
 1987              		.file 5 "Drivers/CMSIS/Device/ST/STM32L4xx/Include/stm32l476xx.h"
 1988              		.file 6 "Drivers/STM32L4xx_HAL_Driver/Inc/stm32l4xx_hal_def.h"
 1989              		.file 7 "Drivers/STM32L4xx_HAL_Driver/Inc/stm32l4xx_hal_flash.h"
 1990              		.file 8 "Drivers/STM32L4xx_HAL_Driver/Inc/stm32l4xx_hal.h"
ARM GAS  /tmp/cc5sw4Du.s 			page 68


DEFINED SYMBOLS
                            *ABS*:0000000000000000 stm32l4xx_hal_flash_ex.c
     /tmp/cc5sw4Du.s:18     .text.FLASH_MassErase:0000000000000000 $t
     /tmp/cc5sw4Du.s:25     .text.FLASH_MassErase:0000000000000000 FLASH_MassErase
     /tmp/cc5sw4Du.s:65     .text.FLASH_MassErase:000000000000002c $d
     /tmp/cc5sw4Du.s:70     .text.FLASH_OB_GetWRP:0000000000000000 $t
     /tmp/cc5sw4Du.s:76     .text.FLASH_OB_GetWRP:0000000000000000 FLASH_OB_GetWRP
     /tmp/cc5sw4Du.s:184    .text.FLASH_OB_GetWRP:0000000000000058 $d
     /tmp/cc5sw4Du.s:189    .text.FLASH_OB_GetRDP:0000000000000000 $t
     /tmp/cc5sw4Du.s:195    .text.FLASH_OB_GetRDP:0000000000000000 FLASH_OB_GetRDP
     /tmp/cc5sw4Du.s:232    .text.FLASH_OB_GetRDP:000000000000001c $d
     /tmp/cc5sw4Du.s:237    .text.FLASH_OB_GetUser:0000000000000000 $t
     /tmp/cc5sw4Du.s:243    .text.FLASH_OB_GetUser:0000000000000000 FLASH_OB_GetUser
     /tmp/cc5sw4Du.s:265    .text.FLASH_OB_GetUser:000000000000000c $d
     /tmp/cc5sw4Du.s:270    .text.FLASH_OB_GetPCROP:0000000000000000 $t
     /tmp/cc5sw4Du.s:276    .text.FLASH_OB_GetPCROP:0000000000000000 FLASH_OB_GetPCROP
     /tmp/cc5sw4Du.s:452    .text.FLASH_OB_GetPCROP:00000000000000b0 $d
     /tmp/cc5sw4Du.s:462    .text.FLASH_OB_WRPConfig:0000000000000000 $t
     /tmp/cc5sw4Du.s:468    .text.FLASH_OB_WRPConfig:0000000000000000 FLASH_OB_WRPConfig
     /tmp/cc5sw4Du.s:589    .text.FLASH_OB_WRPConfig:0000000000000088 $d
     /tmp/cc5sw4Du.s:594    .text.FLASH_OB_RDPConfig:0000000000000000 $t
     /tmp/cc5sw4Du.s:600    .text.FLASH_OB_RDPConfig:0000000000000000 FLASH_OB_RDPConfig
     /tmp/cc5sw4Du.s:663    .text.FLASH_OB_RDPConfig:000000000000003c $d
     /tmp/cc5sw4Du.s:668    .text.FLASH_OB_UserConfig:0000000000000000 $t
     /tmp/cc5sw4Du.s:674    .text.FLASH_OB_UserConfig:0000000000000000 FLASH_OB_UserConfig
     /tmp/cc5sw4Du.s:957    .text.FLASH_OB_UserConfig:0000000000000110 $d
     /tmp/cc5sw4Du.s:962    .text.FLASH_OB_PCROPConfig:0000000000000000 $t
     /tmp/cc5sw4Du.s:968    .text.FLASH_OB_PCROPConfig:0000000000000000 FLASH_OB_PCROPConfig
     /tmp/cc5sw4Du.s:1172   .text.FLASH_OB_PCROPConfig:00000000000000e4 $d
     /tmp/cc5sw4Du.s:1181   .text.HAL_FLASHEx_OBProgram:0000000000000000 $t
     /tmp/cc5sw4Du.s:1188   .text.HAL_FLASHEx_OBProgram:0000000000000000 HAL_FLASHEx_OBProgram
     /tmp/cc5sw4Du.s:1345   .text.HAL_FLASHEx_OBProgram:0000000000000090 $d
     /tmp/cc5sw4Du.s:1350   .text.HAL_FLASHEx_OBGetConfig:0000000000000000 $t
     /tmp/cc5sw4Du.s:1357   .text.HAL_FLASHEx_OBGetConfig:0000000000000000 HAL_FLASHEx_OBGetConfig
     /tmp/cc5sw4Du.s:1437   .text.FLASH_PageErase:0000000000000000 $t
     /tmp/cc5sw4Du.s:1444   .text.FLASH_PageErase:0000000000000000 FLASH_PageErase
     /tmp/cc5sw4Du.s:1495   .text.FLASH_PageErase:0000000000000040 $d
     /tmp/cc5sw4Du.s:1500   .text.HAL_FLASHEx_Erase_IT:0000000000000000 $t
     /tmp/cc5sw4Du.s:1507   .text.HAL_FLASHEx_Erase_IT:0000000000000000 HAL_FLASHEx_Erase_IT
     /tmp/cc5sw4Du.s:1666   .text.HAL_FLASHEx_Erase_IT:00000000000000a8 $d
     /tmp/cc5sw4Du.s:1672   .text.FLASH_FlushCaches:0000000000000000 $t
     /tmp/cc5sw4Du.s:1679   .text.FLASH_FlushCaches:0000000000000000 FLASH_FlushCaches
     /tmp/cc5sw4Du.s:1756   .text.FLASH_FlushCaches:000000000000005c $d
     /tmp/cc5sw4Du.s:1762   .text.HAL_FLASHEx_Erase:0000000000000000 $t
     /tmp/cc5sw4Du.s:1769   .text.HAL_FLASHEx_Erase:0000000000000000 HAL_FLASHEx_Erase
     /tmp/cc5sw4Du.s:1977   .text.HAL_FLASHEx_Erase:00000000000000ec $d

UNDEFINED SYMBOLS
FLASH_WaitForLastOperation
pFlash
